   1              		.cpu cortex-m3
   2              		.arch armv7-m
   3              		.fpu softvfp
   4              		.eabi_attribute 20, 1
   5              		.eabi_attribute 21, 1
   6              		.eabi_attribute 23, 3
   7              		.eabi_attribute 24, 1
   8              		.eabi_attribute 25, 1
   9              		.eabi_attribute 26, 1
  10              		.eabi_attribute 30, 2
  11              		.eabi_attribute 34, 1
  12              		.eabi_attribute 18, 4
  13              		.file	"Debug.c"
  14              		.text
  15              	.Ltext0:
  16              		.cfi_sections	.debug_frame
  17              		.align	1
  18              		.p2align 2,,3
  19              		.global	debug_getTestVar0
  20              		.syntax unified
  21              		.thumb
  22              		.thumb_func
  24              	debug_getTestVar0:
  25              	.LFB0:
  26              		.file 1 "hal/Debug.c"
   1:hal/Debug.c   **** /*
   2:hal/Debug.c   ****  * Debug.c
   3:hal/Debug.c   ****  *
   4:hal/Debug.c   ****  *  Created on: 14.07.2019
   5:hal/Debug.c   ****  *      Author: ED
   6:hal/Debug.c   ****  */
   7:hal/Debug.c   **** #include "Debug.h"
   8:hal/Debug.c   **** 
   9:hal/Debug.c   **** // test/debug variables
  10:hal/Debug.c   **** int gTestVar0, gTestVar1, gTestVar2, gTestVar3, gTestVar4, gTestVar5, gTestVar6, gTestVar7, gTestVa
  11:hal/Debug.c   **** 
  12:hal/Debug.c   **** int debug_getTestVar0()
  13:hal/Debug.c   **** {
  27              		.loc 1 13 1 view -0
  28              		.cfi_startproc
  29              		@ args = 0, pretend = 0, frame = 0
  30              		@ frame_needed = 0, uses_anonymous_args = 0
  31              		@ link register save eliminated.
  14:hal/Debug.c   **** 	return gTestVar0;
  32              		.loc 1 14 2 view .LVU1
  33              		.loc 1 14 9 is_stmt 0 view .LVU2
  34 0000 014B     		ldr	r3, .L3
  15:hal/Debug.c   **** }
  35              		.loc 1 15 1 view .LVU3
  36 0002 1868     		ldr	r0, [r3]
  37 0004 7047     		bx	lr
  38              	.L4:
  39 0006 00BF     		.align	2
  40              	.L3:
  41 0008 00000000 		.word	.LANCHOR0
  42              		.cfi_endproc
  43              	.LFE0:
  45              		.align	1
  46              		.p2align 2,,3
  47              		.global	debug_getTestVar1
  48              		.syntax unified
  49              		.thumb
  50              		.thumb_func
  52              	debug_getTestVar1:
  53              	.LFB1:
  16:hal/Debug.c   **** 
  17:hal/Debug.c   **** int debug_getTestVar1()
  18:hal/Debug.c   **** {
  54              		.loc 1 18 1 is_stmt 1 view -0
  55              		.cfi_startproc
  56              		@ args = 0, pretend = 0, frame = 0
  57              		@ frame_needed = 0, uses_anonymous_args = 0
  58              		@ link register save eliminated.
  19:hal/Debug.c   **** 	return gTestVar1;
  59              		.loc 1 19 2 view .LVU5
  60              		.loc 1 19 9 is_stmt 0 view .LVU6
  61 000c 014B     		ldr	r3, .L6
  20:hal/Debug.c   **** }
  62              		.loc 1 20 1 view .LVU7
  63 000e 5868     		ldr	r0, [r3, #4]
  64 0010 7047     		bx	lr
  65              	.L7:
  66 0012 00BF     		.align	2
  67              	.L6:
  68 0014 00000000 		.word	.LANCHOR0
  69              		.cfi_endproc
  70              	.LFE1:
  72              		.align	1
  73              		.p2align 2,,3
  74              		.global	debug_getTestVar2
  75              		.syntax unified
  76              		.thumb
  77              		.thumb_func
  79              	debug_getTestVar2:
  80              	.LFB2:
  21:hal/Debug.c   **** 
  22:hal/Debug.c   **** int debug_getTestVar2()
  23:hal/Debug.c   **** {
  81              		.loc 1 23 1 is_stmt 1 view -0
  82              		.cfi_startproc
  83              		@ args = 0, pretend = 0, frame = 0
  84              		@ frame_needed = 0, uses_anonymous_args = 0
  85              		@ link register save eliminated.
  24:hal/Debug.c   **** 	return gTestVar2;
  86              		.loc 1 24 2 view .LVU9
  87              		.loc 1 24 9 is_stmt 0 view .LVU10
  88 0018 014B     		ldr	r3, .L9
  25:hal/Debug.c   **** }
  89              		.loc 1 25 1 view .LVU11
  90 001a 9868     		ldr	r0, [r3, #8]
  91 001c 7047     		bx	lr
  92              	.L10:
  93 001e 00BF     		.align	2
  94              	.L9:
  95 0020 00000000 		.word	.LANCHOR0
  96              		.cfi_endproc
  97              	.LFE2:
  99              		.align	1
 100              		.p2align 2,,3
 101              		.global	debug_getTestVar3
 102              		.syntax unified
 103              		.thumb
 104              		.thumb_func
 106              	debug_getTestVar3:
 107              	.LFB3:
  26:hal/Debug.c   **** 
  27:hal/Debug.c   **** int debug_getTestVar3()
  28:hal/Debug.c   **** {
 108              		.loc 1 28 1 is_stmt 1 view -0
 109              		.cfi_startproc
 110              		@ args = 0, pretend = 0, frame = 0
 111              		@ frame_needed = 0, uses_anonymous_args = 0
 112              		@ link register save eliminated.
  29:hal/Debug.c   **** 	return gTestVar3;
 113              		.loc 1 29 2 view .LVU13
 114              		.loc 1 29 9 is_stmt 0 view .LVU14
 115 0024 014B     		ldr	r3, .L12
  30:hal/Debug.c   **** }
 116              		.loc 1 30 1 view .LVU15
 117 0026 D868     		ldr	r0, [r3, #12]
 118 0028 7047     		bx	lr
 119              	.L13:
 120 002a 00BF     		.align	2
 121              	.L12:
 122 002c 00000000 		.word	.LANCHOR0
 123              		.cfi_endproc
 124              	.LFE3:
 126              		.align	1
 127              		.p2align 2,,3
 128              		.global	debug_getTestVar4
 129              		.syntax unified
 130              		.thumb
 131              		.thumb_func
 133              	debug_getTestVar4:
 134              	.LFB4:
  31:hal/Debug.c   **** 
  32:hal/Debug.c   **** int debug_getTestVar4()
  33:hal/Debug.c   **** {
 135              		.loc 1 33 1 is_stmt 1 view -0
 136              		.cfi_startproc
 137              		@ args = 0, pretend = 0, frame = 0
 138              		@ frame_needed = 0, uses_anonymous_args = 0
 139              		@ link register save eliminated.
  34:hal/Debug.c   **** 	return gTestVar4;
 140              		.loc 1 34 2 view .LVU17
 141              		.loc 1 34 9 is_stmt 0 view .LVU18
 142 0030 014B     		ldr	r3, .L15
  35:hal/Debug.c   **** }
 143              		.loc 1 35 1 view .LVU19
 144 0032 1869     		ldr	r0, [r3, #16]
 145 0034 7047     		bx	lr
 146              	.L16:
 147 0036 00BF     		.align	2
 148              	.L15:
 149 0038 00000000 		.word	.LANCHOR0
 150              		.cfi_endproc
 151              	.LFE4:
 153              		.align	1
 154              		.p2align 2,,3
 155              		.global	debug_getTestVar5
 156              		.syntax unified
 157              		.thumb
 158              		.thumb_func
 160              	debug_getTestVar5:
 161              	.LFB5:
  36:hal/Debug.c   **** 
  37:hal/Debug.c   **** int debug_getTestVar5()
  38:hal/Debug.c   **** {
 162              		.loc 1 38 1 is_stmt 1 view -0
 163              		.cfi_startproc
 164              		@ args = 0, pretend = 0, frame = 0
 165              		@ frame_needed = 0, uses_anonymous_args = 0
 166              		@ link register save eliminated.
  39:hal/Debug.c   **** 	return gTestVar5;
 167              		.loc 1 39 2 view .LVU21
 168              		.loc 1 39 9 is_stmt 0 view .LVU22
 169 003c 014B     		ldr	r3, .L18
  40:hal/Debug.c   **** }
 170              		.loc 1 40 1 view .LVU23
 171 003e 5869     		ldr	r0, [r3, #20]
 172 0040 7047     		bx	lr
 173              	.L19:
 174 0042 00BF     		.align	2
 175              	.L18:
 176 0044 00000000 		.word	.LANCHOR0
 177              		.cfi_endproc
 178              	.LFE5:
 180              		.align	1
 181              		.p2align 2,,3
 182              		.global	debug_getTestVar6
 183              		.syntax unified
 184              		.thumb
 185              		.thumb_func
 187              	debug_getTestVar6:
 188              	.LFB6:
  41:hal/Debug.c   **** 
  42:hal/Debug.c   **** int debug_getTestVar6()
  43:hal/Debug.c   **** {
 189              		.loc 1 43 1 is_stmt 1 view -0
 190              		.cfi_startproc
 191              		@ args = 0, pretend = 0, frame = 0
 192              		@ frame_needed = 0, uses_anonymous_args = 0
 193              		@ link register save eliminated.
  44:hal/Debug.c   **** 	return gTestVar6;
 194              		.loc 1 44 2 view .LVU25
 195              		.loc 1 44 9 is_stmt 0 view .LVU26
 196 0048 014B     		ldr	r3, .L21
  45:hal/Debug.c   **** }
 197              		.loc 1 45 1 view .LVU27
 198 004a 9869     		ldr	r0, [r3, #24]
 199 004c 7047     		bx	lr
 200              	.L22:
 201 004e 00BF     		.align	2
 202              	.L21:
 203 0050 00000000 		.word	.LANCHOR0
 204              		.cfi_endproc
 205              	.LFE6:
 207              		.align	1
 208              		.p2align 2,,3
 209              		.global	debug_getTestVar7
 210              		.syntax unified
 211              		.thumb
 212              		.thumb_func
 214              	debug_getTestVar7:
 215              	.LFB7:
  46:hal/Debug.c   **** 
  47:hal/Debug.c   **** int debug_getTestVar7()
  48:hal/Debug.c   **** {
 216              		.loc 1 48 1 is_stmt 1 view -0
 217              		.cfi_startproc
 218              		@ args = 0, pretend = 0, frame = 0
 219              		@ frame_needed = 0, uses_anonymous_args = 0
 220              		@ link register save eliminated.
  49:hal/Debug.c   **** 	return gTestVar7;
 221              		.loc 1 49 2 view .LVU29
 222              		.loc 1 49 9 is_stmt 0 view .LVU30
 223 0054 014B     		ldr	r3, .L24
  50:hal/Debug.c   **** }
 224              		.loc 1 50 1 view .LVU31
 225 0056 D869     		ldr	r0, [r3, #28]
 226 0058 7047     		bx	lr
 227              	.L25:
 228 005a 00BF     		.align	2
 229              	.L24:
 230 005c 00000000 		.word	.LANCHOR0
 231              		.cfi_endproc
 232              	.LFE7:
 234              		.align	1
 235              		.p2align 2,,3
 236              		.global	debug_getTestVar8
 237              		.syntax unified
 238              		.thumb
 239              		.thumb_func
 241              	debug_getTestVar8:
 242              	.LFB8:
  51:hal/Debug.c   **** 
  52:hal/Debug.c   **** int debug_getTestVar8()
  53:hal/Debug.c   **** {
 243              		.loc 1 53 1 is_stmt 1 view -0
 244              		.cfi_startproc
 245              		@ args = 0, pretend = 0, frame = 0
 246              		@ frame_needed = 0, uses_anonymous_args = 0
 247              		@ link register save eliminated.
  54:hal/Debug.c   **** 	return gTestVar8;
 248              		.loc 1 54 2 view .LVU33
 249              		.loc 1 54 9 is_stmt 0 view .LVU34
 250 0060 014B     		ldr	r3, .L27
  55:hal/Debug.c   **** }
 251              		.loc 1 55 1 view .LVU35
 252 0062 186A     		ldr	r0, [r3, #32]
 253 0064 7047     		bx	lr
 254              	.L28:
 255 0066 00BF     		.align	2
 256              	.L27:
 257 0068 00000000 		.word	.LANCHOR0
 258              		.cfi_endproc
 259              	.LFE8:
 261              		.align	1
 262              		.p2align 2,,3
 263              		.global	debug_getTestVar9
 264              		.syntax unified
 265              		.thumb
 266              		.thumb_func
 268              	debug_getTestVar9:
 269              	.LFB9:
  56:hal/Debug.c   **** 
  57:hal/Debug.c   **** int debug_getTestVar9()
  58:hal/Debug.c   **** {
 270              		.loc 1 58 1 is_stmt 1 view -0
 271              		.cfi_startproc
 272              		@ args = 0, pretend = 0, frame = 0
 273              		@ frame_needed = 0, uses_anonymous_args = 0
 274              		@ link register save eliminated.
  59:hal/Debug.c   **** 	return gTestVar9;
 275              		.loc 1 59 2 view .LVU37
 276              		.loc 1 59 9 is_stmt 0 view .LVU38
 277 006c 014B     		ldr	r3, .L30
  60:hal/Debug.c   **** }
 278              		.loc 1 60 1 view .LVU39
 279 006e 586A     		ldr	r0, [r3, #36]
 280 0070 7047     		bx	lr
 281              	.L31:
 282 0072 00BF     		.align	2
 283              	.L30:
 284 0074 00000000 		.word	.LANCHOR0
 285              		.cfi_endproc
 286              	.LFE9:
 288              		.align	1
 289              		.p2align 2,,3
 290              		.global	debug_setTestVar0
 291              		.syntax unified
 292              		.thumb
 293              		.thumb_func
 295              	debug_setTestVar0:
 296              	.LVL0:
 297              	.LFB10:
  61:hal/Debug.c   **** 
  62:hal/Debug.c   **** void debug_setTestVar0(int value)
  63:hal/Debug.c   **** {
 298              		.loc 1 63 1 is_stmt 1 view -0
 299              		.cfi_startproc
 300              		@ args = 0, pretend = 0, frame = 0
 301              		@ frame_needed = 0, uses_anonymous_args = 0
 302              		@ link register save eliminated.
  64:hal/Debug.c   **** 	gTestVar0 = value;
 303              		.loc 1 64 2 view .LVU41
 304              		.loc 1 64 12 is_stmt 0 view .LVU42
 305 0078 014B     		ldr	r3, .L33
 306 007a 1860     		str	r0, [r3]
  65:hal/Debug.c   **** }
 307              		.loc 1 65 1 view .LVU43
 308 007c 7047     		bx	lr
 309              	.L34:
 310 007e 00BF     		.align	2
 311              	.L33:
 312 0080 00000000 		.word	.LANCHOR0
 313              		.cfi_endproc
 314              	.LFE10:
 316              		.align	1
 317              		.p2align 2,,3
 318              		.global	debug_setTestVar1
 319              		.syntax unified
 320              		.thumb
 321              		.thumb_func
 323              	debug_setTestVar1:
 324              	.LVL1:
 325              	.LFB11:
  66:hal/Debug.c   **** 
  67:hal/Debug.c   **** void debug_setTestVar1(int value)
  68:hal/Debug.c   **** {
 326              		.loc 1 68 1 is_stmt 1 view -0
 327              		.cfi_startproc
 328              		@ args = 0, pretend = 0, frame = 0
 329              		@ frame_needed = 0, uses_anonymous_args = 0
 330              		@ link register save eliminated.
  69:hal/Debug.c   **** 	gTestVar1 = value;
 331              		.loc 1 69 2 view .LVU45
 332              		.loc 1 69 12 is_stmt 0 view .LVU46
 333 0084 014B     		ldr	r3, .L36
 334 0086 5860     		str	r0, [r3, #4]
  70:hal/Debug.c   **** }
 335              		.loc 1 70 1 view .LVU47
 336 0088 7047     		bx	lr
 337              	.L37:
 338 008a 00BF     		.align	2
 339              	.L36:
 340 008c 00000000 		.word	.LANCHOR0
 341              		.cfi_endproc
 342              	.LFE11:
 344              		.align	1
 345              		.p2align 2,,3
 346              		.global	debug_setTestVar2
 347              		.syntax unified
 348              		.thumb
 349              		.thumb_func
 351              	debug_setTestVar2:
 352              	.LVL2:
 353              	.LFB12:
  71:hal/Debug.c   **** 
  72:hal/Debug.c   **** void debug_setTestVar2(int value)
  73:hal/Debug.c   **** {
 354              		.loc 1 73 1 is_stmt 1 view -0
 355              		.cfi_startproc
 356              		@ args = 0, pretend = 0, frame = 0
 357              		@ frame_needed = 0, uses_anonymous_args = 0
 358              		@ link register save eliminated.
  74:hal/Debug.c   **** 	gTestVar2 = value;
 359              		.loc 1 74 2 view .LVU49
 360              		.loc 1 74 12 is_stmt 0 view .LVU50
 361 0090 014B     		ldr	r3, .L39
 362 0092 9860     		str	r0, [r3, #8]
  75:hal/Debug.c   **** }
 363              		.loc 1 75 1 view .LVU51
 364 0094 7047     		bx	lr
 365              	.L40:
 366 0096 00BF     		.align	2
 367              	.L39:
 368 0098 00000000 		.word	.LANCHOR0
 369              		.cfi_endproc
 370              	.LFE12:
 372              		.align	1
 373              		.p2align 2,,3
 374              		.global	debug_setTestVar3
 375              		.syntax unified
 376              		.thumb
 377              		.thumb_func
 379              	debug_setTestVar3:
 380              	.LVL3:
 381              	.LFB13:
  76:hal/Debug.c   **** 
  77:hal/Debug.c   **** void debug_setTestVar3(int value)
  78:hal/Debug.c   **** {
 382              		.loc 1 78 1 is_stmt 1 view -0
 383              		.cfi_startproc
 384              		@ args = 0, pretend = 0, frame = 0
 385              		@ frame_needed = 0, uses_anonymous_args = 0
 386              		@ link register save eliminated.
  79:hal/Debug.c   **** 	gTestVar3 = value;
 387              		.loc 1 79 2 view .LVU53
 388              		.loc 1 79 12 is_stmt 0 view .LVU54
 389 009c 014B     		ldr	r3, .L42
 390 009e D860     		str	r0, [r3, #12]
  80:hal/Debug.c   **** }
 391              		.loc 1 80 1 view .LVU55
 392 00a0 7047     		bx	lr
 393              	.L43:
 394 00a2 00BF     		.align	2
 395              	.L42:
 396 00a4 00000000 		.word	.LANCHOR0
 397              		.cfi_endproc
 398              	.LFE13:
 400              		.align	1
 401              		.p2align 2,,3
 402              		.global	debug_setTestVar4
 403              		.syntax unified
 404              		.thumb
 405              		.thumb_func
 407              	debug_setTestVar4:
 408              	.LVL4:
 409              	.LFB14:
  81:hal/Debug.c   **** 
  82:hal/Debug.c   **** void debug_setTestVar4(int value)
  83:hal/Debug.c   **** {
 410              		.loc 1 83 1 is_stmt 1 view -0
 411              		.cfi_startproc
 412              		@ args = 0, pretend = 0, frame = 0
 413              		@ frame_needed = 0, uses_anonymous_args = 0
 414              		@ link register save eliminated.
  84:hal/Debug.c   **** 	gTestVar4 = value;
 415              		.loc 1 84 2 view .LVU57
 416              		.loc 1 84 12 is_stmt 0 view .LVU58
 417 00a8 014B     		ldr	r3, .L45
 418 00aa 1861     		str	r0, [r3, #16]
  85:hal/Debug.c   **** }
 419              		.loc 1 85 1 view .LVU59
 420 00ac 7047     		bx	lr
 421              	.L46:
 422 00ae 00BF     		.align	2
 423              	.L45:
 424 00b0 00000000 		.word	.LANCHOR0
 425              		.cfi_endproc
 426              	.LFE14:
 428              		.align	1
 429              		.p2align 2,,3
 430              		.global	debug_setTestVar5
 431              		.syntax unified
 432              		.thumb
 433              		.thumb_func
 435              	debug_setTestVar5:
 436              	.LVL5:
 437              	.LFB15:
  86:hal/Debug.c   **** 
  87:hal/Debug.c   **** void debug_setTestVar5(int value)
  88:hal/Debug.c   **** {
 438              		.loc 1 88 1 is_stmt 1 view -0
 439              		.cfi_startproc
 440              		@ args = 0, pretend = 0, frame = 0
 441              		@ frame_needed = 0, uses_anonymous_args = 0
 442              		@ link register save eliminated.
  89:hal/Debug.c   **** 	gTestVar5 = value;
 443              		.loc 1 89 2 view .LVU61
 444              		.loc 1 89 12 is_stmt 0 view .LVU62
 445 00b4 014B     		ldr	r3, .L48
 446 00b6 5861     		str	r0, [r3, #20]
  90:hal/Debug.c   **** }
 447              		.loc 1 90 1 view .LVU63
 448 00b8 7047     		bx	lr
 449              	.L49:
 450 00ba 00BF     		.align	2
 451              	.L48:
 452 00bc 00000000 		.word	.LANCHOR0
 453              		.cfi_endproc
 454              	.LFE15:
 456              		.align	1
 457              		.p2align 2,,3
 458              		.global	debug_setTestVar6
 459              		.syntax unified
 460              		.thumb
 461              		.thumb_func
 463              	debug_setTestVar6:
 464              	.LVL6:
 465              	.LFB16:
  91:hal/Debug.c   **** 
  92:hal/Debug.c   **** void debug_setTestVar6(int value)
  93:hal/Debug.c   **** {
 466              		.loc 1 93 1 is_stmt 1 view -0
 467              		.cfi_startproc
 468              		@ args = 0, pretend = 0, frame = 0
 469              		@ frame_needed = 0, uses_anonymous_args = 0
 470              		@ link register save eliminated.
  94:hal/Debug.c   **** 	gTestVar6 = value;
 471              		.loc 1 94 2 view .LVU65
 472              		.loc 1 94 12 is_stmt 0 view .LVU66
 473 00c0 014B     		ldr	r3, .L51
 474 00c2 9861     		str	r0, [r3, #24]
  95:hal/Debug.c   **** }
 475              		.loc 1 95 1 view .LVU67
 476 00c4 7047     		bx	lr
 477              	.L52:
 478 00c6 00BF     		.align	2
 479              	.L51:
 480 00c8 00000000 		.word	.LANCHOR0
 481              		.cfi_endproc
 482              	.LFE16:
 484              		.align	1
 485              		.p2align 2,,3
 486              		.global	debug_setTestVar7
 487              		.syntax unified
 488              		.thumb
 489              		.thumb_func
 491              	debug_setTestVar7:
 492              	.LVL7:
 493              	.LFB17:
  96:hal/Debug.c   **** 
  97:hal/Debug.c   **** void debug_setTestVar7(int value)
  98:hal/Debug.c   **** {
 494              		.loc 1 98 1 is_stmt 1 view -0
 495              		.cfi_startproc
 496              		@ args = 0, pretend = 0, frame = 0
 497              		@ frame_needed = 0, uses_anonymous_args = 0
 498              		@ link register save eliminated.
  99:hal/Debug.c   **** 	gTestVar7 = value;
 499              		.loc 1 99 2 view .LVU69
 500              		.loc 1 99 12 is_stmt 0 view .LVU70
 501 00cc 014B     		ldr	r3, .L54
 502 00ce D861     		str	r0, [r3, #28]
 100:hal/Debug.c   **** }
 503              		.loc 1 100 1 view .LVU71
 504 00d0 7047     		bx	lr
 505              	.L55:
 506 00d2 00BF     		.align	2
 507              	.L54:
 508 00d4 00000000 		.word	.LANCHOR0
 509              		.cfi_endproc
 510              	.LFE17:
 512              		.align	1
 513              		.p2align 2,,3
 514              		.global	debug_setTestVar8
 515              		.syntax unified
 516              		.thumb
 517              		.thumb_func
 519              	debug_setTestVar8:
 520              	.LVL8:
 521              	.LFB18:
 101:hal/Debug.c   **** 
 102:hal/Debug.c   **** void debug_setTestVar8(int value)
 103:hal/Debug.c   **** {
 522              		.loc 1 103 1 is_stmt 1 view -0
 523              		.cfi_startproc
 524              		@ args = 0, pretend = 0, frame = 0
 525              		@ frame_needed = 0, uses_anonymous_args = 0
 526              		@ link register save eliminated.
 104:hal/Debug.c   **** 	gTestVar8 = value;
 527              		.loc 1 104 2 view .LVU73
 528              		.loc 1 104 12 is_stmt 0 view .LVU74
 529 00d8 014B     		ldr	r3, .L57
 530 00da 1862     		str	r0, [r3, #32]
 105:hal/Debug.c   **** }
 531              		.loc 1 105 1 view .LVU75
 532 00dc 7047     		bx	lr
 533              	.L58:
 534 00de 00BF     		.align	2
 535              	.L57:
 536 00e0 00000000 		.word	.LANCHOR0
 537              		.cfi_endproc
 538              	.LFE18:
 540              		.align	1
 541              		.p2align 2,,3
 542              		.global	debug_setTestVar9
 543              		.syntax unified
 544              		.thumb
 545              		.thumb_func
 547              	debug_setTestVar9:
 548              	.LVL9:
 549              	.LFB19:
 106:hal/Debug.c   **** 
 107:hal/Debug.c   **** void debug_setTestVar9(int value)
 108:hal/Debug.c   **** {
 550              		.loc 1 108 1 is_stmt 1 view -0
 551              		.cfi_startproc
 552              		@ args = 0, pretend = 0, frame = 0
 553              		@ frame_needed = 0, uses_anonymous_args = 0
 554              		@ link register save eliminated.
 109:hal/Debug.c   **** 	gTestVar9 = value;
 555              		.loc 1 109 2 view .LVU77
 556              		.loc 1 109 12 is_stmt 0 view .LVU78
 557 00e4 014B     		ldr	r3, .L60
 558 00e6 5862     		str	r0, [r3, #36]
 110:hal/Debug.c   **** }
 559              		.loc 1 110 1 view .LVU79
 560 00e8 7047     		bx	lr
 561              	.L61:
 562 00ea 00BF     		.align	2
 563              	.L60:
 564 00ec 00000000 		.word	.LANCHOR0
 565              		.cfi_endproc
 566              	.LFE19:
 568              		.global	gTestVar9
 569              		.global	gTestVar8
 570              		.global	gTestVar7
 571              		.global	gTestVar6
 572              		.global	gTestVar5
 573              		.global	gTestVar4
 574              		.global	gTestVar3
 575              		.global	gTestVar2
 576              		.global	gTestVar1
 577              		.global	gTestVar0
 578              		.bss
 579              		.align	2
 580              		.set	.LANCHOR0,. + 0
 583              	gTestVar0:
 584 0000 00000000 		.space	4
 587              	gTestVar1:
 588 0004 00000000 		.space	4
 591              	gTestVar2:
 592 0008 00000000 		.space	4
 595              	gTestVar3:
 596 000c 00000000 		.space	4
 599              	gTestVar4:
 600 0010 00000000 		.space	4
 603              	gTestVar5:
 604 0014 00000000 		.space	4
 607              	gTestVar6:
 608 0018 00000000 		.space	4
 611              	gTestVar7:
 612 001c 00000000 		.space	4
 615              	gTestVar8:
 616 0020 00000000 		.space	4
 619              	gTestVar9:
 620 0024 00000000 		.space	4
 621              		.text
 622              	.Letext0: