   1              		.cpu cortex-m3
   2              		.arch armv7-m
   3              		.fpu softvfp
   4              		.eabi_attribute 20, 1
   5              		.eabi_attribute 21, 1
   6              		.eabi_attribute 23, 3
   7              		.eabi_attribute 24, 1
   8              		.eabi_attribute 25, 1
   9              		.eabi_attribute 26, 1
  10              		.eabi_attribute 30, 2
  11              		.eabi_attribute 34, 1
  12              		.eabi_attribute 18, 4
  13              		.file	"LinearRamp.c"
  14              		.text
  15              	.Ltext0:
  16              		.cfi_sections	.debug_frame
  17              		.align	1
  18              		.p2align 2,,3
  19              		.global	tmc_linearRamp_init
  20              		.syntax unified
  21              		.thumb
  22              		.thumb_func
  24              	tmc_linearRamp_init:
  25              	.LVL0:
  26              	.LFB0:
  27              		.file 1 "TMC-API/tmc/ramp/LinearRamp.c"
   1:TMC-API/tmc/ramp/LinearRamp.c **** /*
   2:TMC-API/tmc/ramp/LinearRamp.c ****  * TMC_LinearRamp.c
   3:TMC-API/tmc/ramp/LinearRamp.c ****  *
   4:TMC-API/tmc/ramp/LinearRamp.c ****  *  Created on: 23.07.2018
   5:TMC-API/tmc/ramp/LinearRamp.c ****  *      Author: ed
   6:TMC-API/tmc/ramp/LinearRamp.c ****  *
   7:TMC-API/tmc/ramp/LinearRamp.c ****  *  This is a basic proof-of-concept implementation of a linear motion ramp
   8:TMC-API/tmc/ramp/LinearRamp.c ****  *  generator. It is designed to run with 1 calculation / ms.
   9:TMC-API/tmc/ramp/LinearRamp.c ****  *
  10:TMC-API/tmc/ramp/LinearRamp.c ****  *
  11:TMC-API/tmc/ramp/LinearRamp.c ****  */
  12:TMC-API/tmc/ramp/LinearRamp.c **** #include "LinearRamp.h"
  13:TMC-API/tmc/ramp/LinearRamp.c **** 
  14:TMC-API/tmc/ramp/LinearRamp.c **** void tmc_linearRamp_init(TMC_LinearRamp *linearRamp)
  15:TMC-API/tmc/ramp/LinearRamp.c **** {
  28              		.loc 1 15 1 view -0
  29              		.cfi_startproc
  30              		@ args = 0, pretend = 0, frame = 0
  31              		@ frame_needed = 0, uses_anonymous_args = 0
  32              		@ link register save eliminated.
  16:TMC-API/tmc/ramp/LinearRamp.c **** 	linearRamp->maxVelocity     = 0;
  33              		.loc 1 16 2 view .LVU1
  34              		.loc 1 16 30 is_stmt 0 view .LVU2
  35 0000 0023     		movs	r3, #0
  17:TMC-API/tmc/ramp/LinearRamp.c **** 	linearRamp->targetPosition  = 0;
  18:TMC-API/tmc/ramp/LinearRamp.c **** 	linearRamp->targetVelocity  = 0;
  19:TMC-API/tmc/ramp/LinearRamp.c **** 	linearRamp->rampVelocity    = 0;
  20:TMC-API/tmc/ramp/LinearRamp.c **** 	linearRamp->acceleration    = 0;
  21:TMC-API/tmc/ramp/LinearRamp.c **** 	linearRamp->encoderSteps	= u16_MAX;
  36              		.loc 1 21 27 view .LVU3
  37 0002 4FF6FF72 		movw	r2, #65535
  17:TMC-API/tmc/ramp/LinearRamp.c **** 	linearRamp->targetPosition  = 0;
  38              		.loc 1 17 30 view .LVU4
  39 0006 C0E90033 		strd	r3, r3, [r0]
  18:TMC-API/tmc/ramp/LinearRamp.c **** 	linearRamp->rampVelocity    = 0;
  40              		.loc 1 18 2 is_stmt 1 view .LVU5
  19:TMC-API/tmc/ramp/LinearRamp.c **** 	linearRamp->acceleration    = 0;
  41              		.loc 1 19 30 is_stmt 0 view .LVU6
  42 000a C0E90333 		strd	r3, r3, [r0, #12]
  20:TMC-API/tmc/ramp/LinearRamp.c **** 	linearRamp->encoderSteps	= u16_MAX;
  43              		.loc 1 20 2 is_stmt 1 view .LVU7
  22:TMC-API/tmc/ramp/LinearRamp.c **** 	linearRamp->lastdVRest      = 0;
  23:TMC-API/tmc/ramp/LinearRamp.c **** 	linearRamp->lastdXRest      = 0;
  44              		.loc 1 23 30 is_stmt 0 view .LVU8
  45 000e C0E90733 		strd	r3, r3, [r0, #28]
  20:TMC-API/tmc/ramp/LinearRamp.c **** 	linearRamp->encoderSteps	= u16_MAX;
  46              		.loc 1 20 30 view .LVU9
  47 0012 4361     		str	r3, [r0, #20]
  21:TMC-API/tmc/ramp/LinearRamp.c **** 	linearRamp->lastdVRest      = 0;
  48              		.loc 1 21 2 is_stmt 1 view .LVU10
  21:TMC-API/tmc/ramp/LinearRamp.c **** 	linearRamp->lastdVRest      = 0;
  49              		.loc 1 21 27 is_stmt 0 view .LVU11
  50 0014 0283     		strh	r2, [r0, #24]	@ movhi
  22:TMC-API/tmc/ramp/LinearRamp.c **** 	linearRamp->lastdVRest      = 0;
  51              		.loc 1 22 2 is_stmt 1 view .LVU12
  24:TMC-API/tmc/ramp/LinearRamp.c **** 	linearRamp->rampEnabled     = false;
  52              		.loc 1 24 2 view .LVU13
  53              		.loc 1 24 30 is_stmt 0 view .LVU14
  54 0016 80F82430 		strb	r3, [r0, #36]
  25:TMC-API/tmc/ramp/LinearRamp.c **** }
  55              		.loc 1 25 1 view .LVU15
  56 001a 7047     		bx	lr
  57              		.cfi_endproc
  58              	.LFE0:
  60              		.align	1
  61              		.p2align 2,,3
  62              		.global	tmc_linearRamp_computeRampVelocity
  63              		.syntax unified
  64              		.thumb
  65              		.thumb_func
  67              	tmc_linearRamp_computeRampVelocity:
  68              	.LVL1:
  69              	.LFB1:
  26:TMC-API/tmc/ramp/LinearRamp.c **** 
  27:TMC-API/tmc/ramp/LinearRamp.c **** void tmc_linearRamp_computeRampVelocity(TMC_LinearRamp *linearRamp)
  28:TMC-API/tmc/ramp/LinearRamp.c **** {
  70              		.loc 1 28 1 is_stmt 1 view -0
  71              		.cfi_startproc
  72              		@ args = 0, pretend = 0, frame = 0
  73              		@ frame_needed = 0, uses_anonymous_args = 0
  29:TMC-API/tmc/ramp/LinearRamp.c **** 	if (linearRamp->rampEnabled)
  74              		.loc 1 29 2 view .LVU17
  28:TMC-API/tmc/ramp/LinearRamp.c **** 	if (linearRamp->rampEnabled)
  75              		.loc 1 28 1 is_stmt 0 view .LVU18
  76 001c 38B5     		push	{r3, r4, r5, lr}
  77              	.LCFI0:
  78              		.cfi_def_cfa_offset 16
  79              		.cfi_offset 3, -16
  80              		.cfi_offset 4, -12
  81              		.cfi_offset 5, -8
  82              		.cfi_offset 14, -4
  83              		.loc 1 29 5 view .LVU19
  84 001e 90F82430 		ldrb	r3, [r0, #36]	@ zero_extendqisi2
  28:TMC-API/tmc/ramp/LinearRamp.c **** 	if (linearRamp->rampEnabled)
  85              		.loc 1 28 1 view .LVU20
  86 0022 0446     		mov	r4, r0
  87              		.loc 1 29 5 view .LVU21
  88 0024 43B3     		cbz	r3, .L4
  89              	.LBB2:
  30:TMC-API/tmc/ramp/LinearRamp.c **** 	{
  31:TMC-API/tmc/ramp/LinearRamp.c **** 		// update target velocity according actual set acceleration
  32:TMC-API/tmc/ramp/LinearRamp.c **** 		// (scaling pre-factor of 1000 used for 1ms velocity ramp handling)
  33:TMC-API/tmc/ramp/LinearRamp.c **** 
  34:TMC-API/tmc/ramp/LinearRamp.c **** 		int dV = linearRamp->acceleration;
  90              		.loc 1 34 3 is_stmt 1 view .LVU22
  35:TMC-API/tmc/ramp/LinearRamp.c **** 
  36:TMC-API/tmc/ramp/LinearRamp.c **** 		// to ensure that small velocity changes at high set acceleration are also possible
  37:TMC-API/tmc/ramp/LinearRamp.c **** 		int maxDTV = abs(linearRamp->targetVelocity - linearRamp->rampVelocity);
  91              		.loc 1 37 59 is_stmt 0 view .LVU23
  92 0026 D0E90350 		ldrd	r5, r0, [r0, #12]
  93              	.LVL2:
  34:TMC-API/tmc/ramp/LinearRamp.c **** 
  94              		.loc 1 34 7 view .LVU24
  95 002a 6369     		ldr	r3, [r4, #20]
  96              	.LVL3:
  97              		.loc 1 37 3 is_stmt 1 view .LVU25
  38:TMC-API/tmc/ramp/LinearRamp.c **** 		if (maxDTV < (dV/1000))
  98              		.loc 1 38 19 is_stmt 0 view .LVU26
  99 002c 1949     		ldr	r1, .L9
  37:TMC-API/tmc/ramp/LinearRamp.c **** 		if (maxDTV < (dV/1000))
 100              		.loc 1 37 47 view .LVU27
 101 002e 2A1A     		subs	r2, r5, r0
 102              		.loc 1 38 19 view .LVU28
 103 0030 81FB031C 		smull	r1, ip, r1, r3
  37:TMC-API/tmc/ramp/LinearRamp.c **** 		if (maxDTV < (dV/1000))
 104              		.loc 1 37 7 view .LVU29
 105 0034 002A     		cmp	r2, #0
 106              		.loc 1 38 19 view .LVU30
 107 0036 4FEAE371 		asr	r1, r3, #31
 108 003a C1EBAC11 		rsb	r1, r1, ip, asr #6
  37:TMC-API/tmc/ramp/LinearRamp.c **** 		if (maxDTV < (dV/1000))
 109              		.loc 1 37 7 view .LVU31
 110 003e B8BF     		it	lt
 111 0040 5242     		rsblt	r2, r2, #0
 112              	.LVL4:
 113              		.loc 1 38 3 is_stmt 1 view .LVU32
 114              		.loc 1 38 6 is_stmt 0 view .LVU33
 115 0042 9142     		cmp	r1, r2
  39:TMC-API/tmc/ramp/LinearRamp.c **** 			dV = maxDTV*1000;
 116              		.loc 1 39 4 is_stmt 1 view .LVU34
 117              		.loc 1 39 7 is_stmt 0 view .LVU35
 118 0044 C8BF     		it	gt
 119 0046 4FF47A73 		movgt	r3, #1000
 120              	.LVL5:
  40:TMC-API/tmc/ramp/LinearRamp.c **** 
  41:TMC-API/tmc/ramp/LinearRamp.c **** 		dV += linearRamp->lastdVRest;
  42:TMC-API/tmc/ramp/LinearRamp.c **** 		linearRamp->lastdVRest = dV % 1000;
 121              		.loc 1 42 31 view .LVU36
 122 004a 4FF47A7E 		mov	lr, #1000
  39:TMC-API/tmc/ramp/LinearRamp.c **** 			dV = maxDTV*1000;
 123              		.loc 1 39 7 view .LVU37
 124 004e C8BF     		it	gt
 125 0050 5343     		mulgt	r3, r2, r3
 126              	.LVL6:
  41:TMC-API/tmc/ramp/LinearRamp.c **** 		linearRamp->lastdVRest = dV % 1000;
 127              		.loc 1 41 3 is_stmt 1 view .LVU38
  41:TMC-API/tmc/ramp/LinearRamp.c **** 		linearRamp->lastdVRest = dV % 1000;
 128              		.loc 1 41 6 is_stmt 0 view .LVU39
 129 0052 E269     		ldr	r2, [r4, #28]
 130              	.LVL7:
  43:TMC-API/tmc/ramp/LinearRamp.c **** 
  44:TMC-API/tmc/ramp/LinearRamp.c **** 		if (linearRamp->rampVelocity < linearRamp->targetVelocity)
 131              		.loc 1 44 6 view .LVU40
 132 0054 8542     		cmp	r5, r0
  41:TMC-API/tmc/ramp/LinearRamp.c **** 		linearRamp->lastdVRest = dV % 1000;
 133              		.loc 1 41 6 view .LVU41
 134 0056 1344     		add	r3, r3, r2
 135              	.LVL8:
  42:TMC-API/tmc/ramp/LinearRamp.c **** 
 136              		.loc 1 42 3 is_stmt 1 view .LVU42
  42:TMC-API/tmc/ramp/LinearRamp.c **** 
 137              		.loc 1 42 31 is_stmt 0 view .LVU43
 138 0058 0E4A     		ldr	r2, .L9
 139 005a 82FB0312 		smull	r1, r2, r2, r3
 140 005e 4FEAE371 		asr	r1, r3, #31
 141 0062 C1EBA21C 		rsb	ip, r1, r2, asr #6
 142 0066 0EFB1C33 		mls	r3, lr, ip, r3
 143              	.LVL9:
  42:TMC-API/tmc/ramp/LinearRamp.c **** 
 144              		.loc 1 42 31 view .LVU44
 145 006a 4FEAA212 		asr	r2, r2, #6
  42:TMC-API/tmc/ramp/LinearRamp.c **** 
 146              		.loc 1 42 26 view .LVU45
 147 006e E361     		str	r3, [r4, #28]
 148              	.LVL10:
 149              		.loc 1 44 3 is_stmt 1 view .LVU46
 150              		.loc 1 44 6 is_stmt 0 view .LVU47
 151 0070 0ADD     		ble	.L6
  45:TMC-API/tmc/ramp/LinearRamp.c **** 		{
  46:TMC-API/tmc/ramp/LinearRamp.c **** 			// accelerate motor
  47:TMC-API/tmc/ramp/LinearRamp.c **** 			linearRamp->rampVelocity += dV/1000;	// divide with pre-factor
 152              		.loc 1 47 4 is_stmt 1 view .LVU48
 153              		.loc 1 47 29 is_stmt 0 view .LVU49
 154 0072 6044     		add	r0, r0, ip
 155              	.LVL11:
 156              		.loc 1 47 29 view .LVU50
 157 0074 2061     		str	r0, [r4, #16]
 158              	.LVL12:
 159              		.loc 1 47 29 view .LVU51
 160 0076 01E0     		b	.L7
 161              	.LVL13:
 162              	.L4:
 163              		.loc 1 47 29 view .LVU52
 164              	.LBE2:
  48:TMC-API/tmc/ramp/LinearRamp.c **** 		}
  49:TMC-API/tmc/ramp/LinearRamp.c **** 		else if (linearRamp->rampVelocity > linearRamp->targetVelocity)
  50:TMC-API/tmc/ramp/LinearRamp.c **** 		{
  51:TMC-API/tmc/ramp/LinearRamp.c **** 			// decelerate motor
  52:TMC-API/tmc/ramp/LinearRamp.c **** 			linearRamp->rampVelocity -= dV/1000;	// divide with pre-factor
  53:TMC-API/tmc/ramp/LinearRamp.c **** 		}
  54:TMC-API/tmc/ramp/LinearRamp.c **** 	}
  55:TMC-API/tmc/ramp/LinearRamp.c **** 	else
  56:TMC-API/tmc/ramp/LinearRamp.c **** 	{
  57:TMC-API/tmc/ramp/LinearRamp.c **** 		// use target velocity directly
  58:TMC-API/tmc/ramp/LinearRamp.c **** 		linearRamp->rampVelocity = linearRamp->targetVelocity;
 165              		.loc 1 58 3 is_stmt 1 view .LVU53
 166              		.loc 1 58 40 is_stmt 0 view .LVU54
 167 0078 C068     		ldr	r0, [r0, #12]
 168              	.LVL14:
 169              		.loc 1 58 28 view .LVU55
 170 007a 2061     		str	r0, [r4, #16]
 171              	.L7:
  59:TMC-API/tmc/ramp/LinearRamp.c **** 	}
  60:TMC-API/tmc/ramp/LinearRamp.c **** 
  61:TMC-API/tmc/ramp/LinearRamp.c **** 	// limit ramp velocity
  62:TMC-API/tmc/ramp/LinearRamp.c **** 	linearRamp->rampVelocity = tmc_limitInt(linearRamp->rampVelocity, -linearRamp->maxVelocity, linear
 172              		.loc 1 62 2 is_stmt 1 view .LVU56
 173              		.loc 1 62 79 is_stmt 0 view .LVU57
 174 007c 2268     		ldr	r2, [r4]
 175              		.loc 1 62 29 view .LVU58
 176 007e 5142     		rsbs	r1, r2, #0
 177 0080 FFF7FEFF 		bl	tmc_limitInt
 178              	.LVL15:
 179              		.loc 1 62 27 view .LVU59
 180 0084 2061     		str	r0, [r4, #16]
  63:TMC-API/tmc/ramp/LinearRamp.c **** }
 181              		.loc 1 63 1 view .LVU60
 182 0086 38BD     		pop	{r3, r4, r5, pc}
 183              	.LVL16:
 184              	.L6:
 185              	.LBB3:
  49:TMC-API/tmc/ramp/LinearRamp.c **** 		{
 186              		.loc 1 49 8 is_stmt 1 view .LVU61
  49:TMC-API/tmc/ramp/LinearRamp.c **** 		{
 187              		.loc 1 49 11 is_stmt 0 view .LVU62
 188 0088 F8DA     		bge	.L7
  52:TMC-API/tmc/ramp/LinearRamp.c **** 		}
 189              		.loc 1 52 4 is_stmt 1 view .LVU63
  52:TMC-API/tmc/ramp/LinearRamp.c **** 		}
 190              		.loc 1 52 34 is_stmt 0 view .LVU64
 191 008a 8A1A     		subs	r2, r1, r2
  52:TMC-API/tmc/ramp/LinearRamp.c **** 		}
 192              		.loc 1 52 29 view .LVU65
 193 008c 1044     		add	r0, r0, r2
 194              	.LVL17:
  52:TMC-API/tmc/ramp/LinearRamp.c **** 		}
 195              		.loc 1 52 29 view .LVU66
 196 008e 2061     		str	r0, [r4, #16]
 197              	.LVL18:
  52:TMC-API/tmc/ramp/LinearRamp.c **** 		}
 198              		.loc 1 52 29 view .LVU67
 199 0090 F4E7     		b	.L7
 200              	.L10:
 201 0092 00BF     		.align	2
 202              	.L9:
 203 0094 D34D6210 		.word	274877907
 204              	.LBE3:
 205              		.cfi_endproc
 206              	.LFE1:
 208              		.global	__aeabi_ldivmod
 209              		.align	1
 210              		.p2align 2,,3
 211              		.global	tmc_linearRamp_computeRampPosition
 212              		.syntax unified
 213              		.thumb
 214              		.thumb_func
 216              	tmc_linearRamp_computeRampPosition:
 217              	.LVL19:
 218              	.LFB2:
  64:TMC-API/tmc/ramp/LinearRamp.c **** 
  65:TMC-API/tmc/ramp/LinearRamp.c **** void tmc_linearRamp_computeRampPosition(TMC_LinearRamp *linearRamp)
  66:TMC-API/tmc/ramp/LinearRamp.c **** {
 219              		.loc 1 66 1 is_stmt 1 view -0
 220              		.cfi_startproc
 221              		@ args = 0, pretend = 0, frame = 0
 222              		@ frame_needed = 0, uses_anonymous_args = 0
  67:TMC-API/tmc/ramp/LinearRamp.c **** 	if (linearRamp->rampEnabled)
 223              		.loc 1 67 2 view .LVU69
  66:TMC-API/tmc/ramp/LinearRamp.c **** 	if (linearRamp->rampEnabled)
 224              		.loc 1 66 1 is_stmt 0 view .LVU70
 225 0098 70B5     		push	{r4, r5, r6, lr}
 226              	.LCFI1:
 227              		.cfi_def_cfa_offset 16
 228              		.cfi_offset 4, -16
 229              		.cfi_offset 5, -12
 230              		.cfi_offset 6, -8
 231              		.cfi_offset 14, -4
 232              		.loc 1 67 5 view .LVU71
 233 009a 90F82430 		ldrb	r3, [r0, #36]	@ zero_extendqisi2
  66:TMC-API/tmc/ramp/LinearRamp.c **** 	if (linearRamp->rampEnabled)
 234              		.loc 1 66 1 view .LVU72
 235 009e 0446     		mov	r4, r0
 236 00a0 82B0     		sub	sp, sp, #8
 237              	.LCFI2:
 238              		.cfi_def_cfa_offset 24
 239              		.loc 1 67 5 view .LVU73
 240 00a2 1BB9     		cbnz	r3, .L22
  68:TMC-API/tmc/ramp/LinearRamp.c **** 	{
  69:TMC-API/tmc/ramp/LinearRamp.c **** 		// update target position according actual set acceleration and max velocity
  70:TMC-API/tmc/ramp/LinearRamp.c **** 		// (scaling pre-factor of 1000 used for 1ms position ramp handling)
  71:TMC-API/tmc/ramp/LinearRamp.c **** 
  72:TMC-API/tmc/ramp/LinearRamp.c **** 		// limit position difference for further computations
  73:TMC-API/tmc/ramp/LinearRamp.c **** 		int32_t targetPositionsDifference = linearRamp->targetPosition-linearRamp->rampPosition;
  74:TMC-API/tmc/ramp/LinearRamp.c **** 
  75:TMC-API/tmc/ramp/LinearRamp.c **** 		// limit the sqrti value in case of high position differences
  76:TMC-API/tmc/ramp/LinearRamp.c **** 		int64_t sqrtiValue = tmc_limitS64(((int64_t)120 * (int64_t)linearRamp->acceleration * (int64_t)(a
  77:TMC-API/tmc/ramp/LinearRamp.c **** 
  78:TMC-API/tmc/ramp/LinearRamp.c **** 		// compute max allowed ramp velocity to ramp down to target
  79:TMC-API/tmc/ramp/LinearRamp.c **** 		int32_t maxRampStop = tmc_sqrti(sqrtiValue);
  80:TMC-API/tmc/ramp/LinearRamp.c **** 
  81:TMC-API/tmc/ramp/LinearRamp.c **** 		// compute max allowed ramp velocity
  82:TMC-API/tmc/ramp/LinearRamp.c **** 		int32_t maxRampTargetVelocity = 0;
  83:TMC-API/tmc/ramp/LinearRamp.c **** 		if (targetPositionsDifference > 0)
  84:TMC-API/tmc/ramp/LinearRamp.c **** 		{
  85:TMC-API/tmc/ramp/LinearRamp.c **** 			maxRampTargetVelocity = tmc_limitInt(maxRampStop, 0, (int32_t)linearRamp->maxVelocity);
  86:TMC-API/tmc/ramp/LinearRamp.c **** 		}
  87:TMC-API/tmc/ramp/LinearRamp.c **** 		else if (targetPositionsDifference < 0)
  88:TMC-API/tmc/ramp/LinearRamp.c **** 		{
  89:TMC-API/tmc/ramp/LinearRamp.c **** 			maxRampTargetVelocity = tmc_limitInt(-maxRampStop, -(int32_t)linearRamp->maxVelocity, 0);
  90:TMC-API/tmc/ramp/LinearRamp.c **** 		}
  91:TMC-API/tmc/ramp/LinearRamp.c **** 		else
  92:TMC-API/tmc/ramp/LinearRamp.c **** 		{
  93:TMC-API/tmc/ramp/LinearRamp.c **** 			//maxRampTargetVelocity = 0;
  94:TMC-API/tmc/ramp/LinearRamp.c **** 		}
  95:TMC-API/tmc/ramp/LinearRamp.c **** 
  96:TMC-API/tmc/ramp/LinearRamp.c **** 		int dV = linearRamp->acceleration;  // pre-factor ~ 1/1000
  97:TMC-API/tmc/ramp/LinearRamp.c **** 
  98:TMC-API/tmc/ramp/LinearRamp.c **** 		// to ensure that small velocity changes at high set acceleration are also possible
  99:TMC-API/tmc/ramp/LinearRamp.c **** 		int maxDTV = abs(maxRampTargetVelocity - linearRamp->rampVelocity);
 100:TMC-API/tmc/ramp/LinearRamp.c **** 		if (maxDTV < (dV / 1000))
 101:TMC-API/tmc/ramp/LinearRamp.c **** 			dV = maxDTV * 1000;
 102:TMC-API/tmc/ramp/LinearRamp.c **** 
 103:TMC-API/tmc/ramp/LinearRamp.c **** 		dV += linearRamp->lastdVRest;
 104:TMC-API/tmc/ramp/LinearRamp.c **** 		linearRamp->lastdVRest = dV % 1000;
 105:TMC-API/tmc/ramp/LinearRamp.c **** 
 106:TMC-API/tmc/ramp/LinearRamp.c **** 		// do velocity ramping
 107:TMC-API/tmc/ramp/LinearRamp.c **** 		if (maxRampTargetVelocity > linearRamp->rampVelocity)
 108:TMC-API/tmc/ramp/LinearRamp.c **** 		{
 109:TMC-API/tmc/ramp/LinearRamp.c **** 			linearRamp->rampVelocity += dV / 1000;
 110:TMC-API/tmc/ramp/LinearRamp.c **** 		}
 111:TMC-API/tmc/ramp/LinearRamp.c **** 		else if (maxRampTargetVelocity < linearRamp->rampVelocity)
 112:TMC-API/tmc/ramp/LinearRamp.c **** 		{
 113:TMC-API/tmc/ramp/LinearRamp.c **** 			linearRamp->rampVelocity -= dV / 1000;
 114:TMC-API/tmc/ramp/LinearRamp.c **** 		}
 115:TMC-API/tmc/ramp/LinearRamp.c **** 
 116:TMC-API/tmc/ramp/LinearRamp.c **** 		// limit positionRampTargetVelocity to maxRampTargetVelocity
 117:TMC-API/tmc/ramp/LinearRamp.c **** 		//linearRamp->rampVelocity = tmc_limitInt(linearRamp->rampVelocity, -abs(maxRampTargetVelocity), 
 118:TMC-API/tmc/ramp/LinearRamp.c **** 
 119:TMC-API/tmc/ramp/LinearRamp.c **** 		// do position ramping using actual ramp velocity to update dX
 120:TMC-API/tmc/ramp/LinearRamp.c **** 		int64_t dX = ((int64_t)linearRamp->rampVelocity * (int64_t)linearRamp->encoderSteps) / ((int64_t)
 121:TMC-API/tmc/ramp/LinearRamp.c **** 
 122:TMC-API/tmc/ramp/LinearRamp.c **** 		// scale actual target position
 123:TMC-API/tmc/ramp/LinearRamp.c **** 		int64_t tempActualTargetPosition = (int64_t)linearRamp->rampPosition * 1000;
 124:TMC-API/tmc/ramp/LinearRamp.c **** 
 125:TMC-API/tmc/ramp/LinearRamp.c **** 		// update actual target position
 126:TMC-API/tmc/ramp/LinearRamp.c **** 		tempActualTargetPosition += dX;
 127:TMC-API/tmc/ramp/LinearRamp.c **** 
 128:TMC-API/tmc/ramp/LinearRamp.c **** 		if (tempActualTargetPosition >= 0)
 129:TMC-API/tmc/ramp/LinearRamp.c **** 			linearRamp->lastdXRest = (abs(tempActualTargetPosition) % 1000);
 130:TMC-API/tmc/ramp/LinearRamp.c **** 		else if (tempActualTargetPosition < 0)
 131:TMC-API/tmc/ramp/LinearRamp.c **** 			linearRamp->lastdXRest = -(abs(tempActualTargetPosition) % 1000);
 132:TMC-API/tmc/ramp/LinearRamp.c **** 
 133:TMC-API/tmc/ramp/LinearRamp.c **** 		// scale actual target position back
 134:TMC-API/tmc/ramp/LinearRamp.c **** 		linearRamp->rampPosition = tempActualTargetPosition / 1000;
 135:TMC-API/tmc/ramp/LinearRamp.c **** 	}
 136:TMC-API/tmc/ramp/LinearRamp.c **** 	else
 137:TMC-API/tmc/ramp/LinearRamp.c **** 	{
 138:TMC-API/tmc/ramp/LinearRamp.c **** 		// use target position directly
 139:TMC-API/tmc/ramp/LinearRamp.c **** 		linearRamp->rampPosition = linearRamp->targetPosition;
 241              		.loc 1 139 3 is_stmt 1 view .LVU74
 242              		.loc 1 139 28 is_stmt 0 view .LVU75
 243 00a4 4368     		ldr	r3, [r0, #4]
 244 00a6 8360     		str	r3, [r0, #8]
 140:TMC-API/tmc/ramp/LinearRamp.c **** 	}
 141:TMC-API/tmc/ramp/LinearRamp.c **** }
 245              		.loc 1 141 1 view .LVU76
 246 00a8 02B0     		add	sp, sp, #8
 247              	.LCFI3:
 248              		.cfi_remember_state
 249              		.cfi_def_cfa_offset 16
 250              		@ sp needed
 251 00aa 70BD     		pop	{r4, r5, r6, pc}
 252              	.L22:
 253              	.LCFI4:
 254              		.cfi_restore_state
 255              	.LBB4:
  73:TMC-API/tmc/ramp/LinearRamp.c **** 
 256              		.loc 1 73 3 is_stmt 1 view .LVU77
  73:TMC-API/tmc/ramp/LinearRamp.c **** 
 257              		.loc 1 73 11 is_stmt 0 view .LVU78
 258 00ac D0E90150 		ldrd	r5, r0, [r0, #4]
 259              	.LVL20:
  73:TMC-API/tmc/ramp/LinearRamp.c **** 
 260              		.loc 1 73 11 view .LVU79
 261 00b0 2D1A     		subs	r5, r5, r0
 262              	.LVL21:
  76:TMC-API/tmc/ramp/LinearRamp.c **** 
 263              		.loc 1 76 3 is_stmt 1 view .LVU80
  76:TMC-API/tmc/ramp/LinearRamp.c **** 
 264              		.loc 1 76 87 is_stmt 0 view .LVU81
 265 00b2 6169     		ldr	r1, [r4, #20]
  76:TMC-API/tmc/ramp/LinearRamp.c **** 
 266              		.loc 1 76 99 view .LVU82
 267 00b4 85EAE570 		eor	r0, r5, r5, asr #31
 268 00b8 A0EBE570 		sub	r0, r0, r5, asr #31
  76:TMC-API/tmc/ramp/LinearRamp.c **** 
 269              		.loc 1 76 87 view .LVU83
 270 00bc 80FB010E 		smull	r0, lr, r0, r1
 271 00c0 4FEA0E11 		lsl	r1, lr, #4
 272 00c4 4FEA001C 		lsl	ip, r0, #4
 273 00c8 41EA1071 		orr	r1, r1, r0, lsr #28
 274 00cc BCEB0000 		subs	r0, ip, r0
 275 00d0 61EB0E01 		sbc	r1, r1, lr
  76:TMC-API/tmc/ramp/LinearRamp.c **** 
 276              		.loc 1 76 191 view .LVU84
 277 00d4 2668     		ldr	r6, [r4]
  76:TMC-API/tmc/ramp/LinearRamp.c **** 
 278              		.loc 1 76 87 view .LVU85
 279 00d6 C900     		lsls	r1, r1, #3
  76:TMC-API/tmc/ramp/LinearRamp.c **** 
 280              		.loc 1 76 24 view .LVU86
 281 00d8 228B     		ldrh	r2, [r4, #24]
 282 00da 0023     		movs	r3, #0
 283 00dc 41EA5071 		orr	r1, r1, r0, lsr #29
 284 00e0 C000     		lsls	r0, r0, #3
 285 00e2 FFF7FEFF 		bl	__aeabi_ldivmod
 286              	.LVL22:
 287 00e6 A6FB0663 		umull	r6, r3, r6, r6
 288 00ea 0022     		movs	r2, #0
 289 00ec CDE90063 		strd	r6, r3, [sp]
 290 00f0 0023     		movs	r3, #0
 291 00f2 FFF7FEFF 		bl	tmc_limitS64
 292              	.LVL23:
  79:TMC-API/tmc/ramp/LinearRamp.c **** 
 293              		.loc 1 79 3 is_stmt 1 view .LVU87
  79:TMC-API/tmc/ramp/LinearRamp.c **** 
 294              		.loc 1 79 25 is_stmt 0 view .LVU88
 295 00f6 FFF7FEFF 		bl	tmc_sqrti
 296              	.LVL24:
  82:TMC-API/tmc/ramp/LinearRamp.c **** 		if (targetPositionsDifference > 0)
 297              		.loc 1 82 3 is_stmt 1 view .LVU89
  83:TMC-API/tmc/ramp/LinearRamp.c **** 		{
 298              		.loc 1 83 3 view .LVU90
  83:TMC-API/tmc/ramp/LinearRamp.c **** 		{
 299              		.loc 1 83 6 is_stmt 0 view .LVU91
 300 00fa 002D     		cmp	r5, #0
 301 00fc 4CDC     		bgt	.L23
  87:TMC-API/tmc/ramp/LinearRamp.c **** 		{
 302              		.loc 1 87 8 is_stmt 1 view .LVU92
  87:TMC-API/tmc/ramp/LinearRamp.c **** 		{
 303              		.loc 1 87 11 is_stmt 0 view .LVU93
 304 00fe 62D1     		bne	.L24
 305              	.LVL25:
 306              	.L14:
  94:TMC-API/tmc/ramp/LinearRamp.c **** 
 307              		.loc 1 94 3 is_stmt 1 view .LVU94
  96:TMC-API/tmc/ramp/LinearRamp.c **** 
 308              		.loc 1 96 3 view .LVU95
  96:TMC-API/tmc/ramp/LinearRamp.c **** 
 309              		.loc 1 96 7 is_stmt 0 view .LVU96
 310 0100 D4E90413 		ldrd	r1, r3, [r4, #16]
 311              	.LVL26:
  99:TMC-API/tmc/ramp/LinearRamp.c **** 		if (maxDTV < (dV / 1000))
 312              		.loc 1 99 3 is_stmt 1 view .LVU97
 100:TMC-API/tmc/ramp/LinearRamp.c **** 			dV = maxDTV * 1000;
 313              		.loc 1 100 20 is_stmt 0 view .LVU98
 314 0104 344E     		ldr	r6, .L25
  99:TMC-API/tmc/ramp/LinearRamp.c **** 		if (maxDTV < (dV / 1000))
 315              		.loc 1 99 42 view .LVU99
 316 0106 6A1A     		subs	r2, r5, r1
 100:TMC-API/tmc/ramp/LinearRamp.c **** 			dV = maxDTV * 1000;
 317              		.loc 1 100 20 view .LVU100
 318 0108 86FB0306 		smull	r0, r6, r6, r3
  99:TMC-API/tmc/ramp/LinearRamp.c **** 		if (maxDTV < (dV / 1000))
 319              		.loc 1 99 7 view .LVU101
 320 010c 002A     		cmp	r2, #0
 100:TMC-API/tmc/ramp/LinearRamp.c **** 			dV = maxDTV * 1000;
 321              		.loc 1 100 20 view .LVU102
 322 010e 4FEAE370 		asr	r0, r3, #31
 323 0112 C0EBA610 		rsb	r0, r0, r6, asr #6
  99:TMC-API/tmc/ramp/LinearRamp.c **** 		if (maxDTV < (dV / 1000))
 324              		.loc 1 99 7 view .LVU103
 325 0116 B8BF     		it	lt
 326 0118 5242     		rsblt	r2, r2, #0
 327              	.LVL27:
 100:TMC-API/tmc/ramp/LinearRamp.c **** 			dV = maxDTV * 1000;
 328              		.loc 1 100 3 is_stmt 1 view .LVU104
 100:TMC-API/tmc/ramp/LinearRamp.c **** 			dV = maxDTV * 1000;
 329              		.loc 1 100 6 is_stmt 0 view .LVU105
 330 011a 9042     		cmp	r0, r2
 101:TMC-API/tmc/ramp/LinearRamp.c **** 
 331              		.loc 1 101 4 is_stmt 1 view .LVU106
 101:TMC-API/tmc/ramp/LinearRamp.c **** 
 332              		.loc 1 101 7 is_stmt 0 view .LVU107
 333 011c C8BF     		it	gt
 334 011e 4FF47A73 		movgt	r3, #1000
 335              	.LVL28:
 104:TMC-API/tmc/ramp/LinearRamp.c **** 
 336              		.loc 1 104 31 view .LVU108
 337 0122 4FF47A7C 		mov	ip, #1000
 101:TMC-API/tmc/ramp/LinearRamp.c **** 
 338              		.loc 1 101 7 view .LVU109
 339 0126 C8BF     		it	gt
 340 0128 5343     		mulgt	r3, r2, r3
 341              	.LVL29:
 103:TMC-API/tmc/ramp/LinearRamp.c **** 		linearRamp->lastdVRest = dV % 1000;
 342              		.loc 1 103 3 is_stmt 1 view .LVU110
 103:TMC-API/tmc/ramp/LinearRamp.c **** 		linearRamp->lastdVRest = dV % 1000;
 343              		.loc 1 103 6 is_stmt 0 view .LVU111
 344 012a E269     		ldr	r2, [r4, #28]
 345              	.LVL30:
 107:TMC-API/tmc/ramp/LinearRamp.c **** 		{
 346              		.loc 1 107 6 view .LVU112
 347 012c A942     		cmp	r1, r5
 103:TMC-API/tmc/ramp/LinearRamp.c **** 		linearRamp->lastdVRest = dV % 1000;
 348              		.loc 1 103 6 view .LVU113
 349 012e 1344     		add	r3, r3, r2
 350              	.LVL31:
 104:TMC-API/tmc/ramp/LinearRamp.c **** 
 351              		.loc 1 104 3 is_stmt 1 view .LVU114
 104:TMC-API/tmc/ramp/LinearRamp.c **** 
 352              		.loc 1 104 31 is_stmt 0 view .LVU115
 353 0130 294A     		ldr	r2, .L25
 354 0132 82FB0302 		smull	r0, r2, r2, r3
 355 0136 4FEAE370 		asr	r0, r3, #31
 356 013a C0EBA216 		rsb	r6, r0, r2, asr #6
 357 013e 0CFB1633 		mls	r3, ip, r6, r3
 358              	.LVL32:
 104:TMC-API/tmc/ramp/LinearRamp.c **** 
 359              		.loc 1 104 31 view .LVU116
 360 0142 4FEAA212 		asr	r2, r2, #6
 104:TMC-API/tmc/ramp/LinearRamp.c **** 
 361              		.loc 1 104 26 view .LVU117
 362 0146 E361     		str	r3, [r4, #28]
 363              	.LVL33:
 107:TMC-API/tmc/ramp/LinearRamp.c **** 		{
 364              		.loc 1 107 3 is_stmt 1 view .LVU118
 107:TMC-API/tmc/ramp/LinearRamp.c **** 		{
 365              		.loc 1 107 6 is_stmt 0 view .LVU119
 366 0148 2CDA     		bge	.L16
 109:TMC-API/tmc/ramp/LinearRamp.c **** 		}
 367              		.loc 1 109 4 is_stmt 1 view .LVU120
 109:TMC-API/tmc/ramp/LinearRamp.c **** 		}
 368              		.loc 1 109 29 is_stmt 0 view .LVU121
 369 014a 3144     		add	r1, r1, r6
 370              	.LVL34:
 109:TMC-API/tmc/ramp/LinearRamp.c **** 		}
 371              		.loc 1 109 29 view .LVU122
 372 014c 2161     		str	r1, [r4, #16]
 373              	.LVL35:
 374              	.L17:
 120:TMC-API/tmc/ramp/LinearRamp.c **** 
 375              		.loc 1 120 3 is_stmt 1 view .LVU123
 123:TMC-API/tmc/ramp/LinearRamp.c **** 
 376              		.loc 1 123 3 view .LVU124
 126:TMC-API/tmc/ramp/LinearRamp.c **** 
 377              		.loc 1 126 3 view .LVU125
 120:TMC-API/tmc/ramp/LinearRamp.c **** 
 378              		.loc 1 120 51 is_stmt 0 view .LVU126
 379 014e 208B     		ldrh	r0, [r4, #24]
 120:TMC-API/tmc/ramp/LinearRamp.c **** 
 380              		.loc 1 120 88 view .LVU127
 381 0150 3C22     		movs	r2, #60
 382 0152 0023     		movs	r3, #0
 383 0154 80FB0101 		smull	r0, r1, r0, r1
 384              	.LVL36:
 120:TMC-API/tmc/ramp/LinearRamp.c **** 
 385              		.loc 1 120 88 view .LVU128
 386 0158 FFF7FEFF 		bl	__aeabi_ldivmod
 387              	.LVL37:
 126:TMC-API/tmc/ramp/LinearRamp.c **** 
 388              		.loc 1 126 28 view .LVU129
 389 015c 4FF47A76 		mov	r6, #1000
 120:TMC-API/tmc/ramp/LinearRamp.c **** 
 390              		.loc 1 120 116 view .LVU130
 391 0160 256A     		ldr	r5, [r4, #32]
 392              	.LVL38:
 126:TMC-API/tmc/ramp/LinearRamp.c **** 
 393              		.loc 1 126 28 view .LVU131
 394 0162 A268     		ldr	r2, [r4, #8]
 395              	.LVL39:
 120:TMC-API/tmc/ramp/LinearRamp.c **** 
 396              		.loc 1 120 11 view .LVU132
 397 0164 4019     		adds	r0, r0, r5
 398 0166 41EBE571 		adc	r1, r1, r5, asr #31
 126:TMC-API/tmc/ramp/LinearRamp.c **** 
 399              		.loc 1 126 28 view .LVU133
 400 016a C2FB0601 		smlal	r0, r1, r2, r6
 401              	.LVL40:
 128:TMC-API/tmc/ramp/LinearRamp.c **** 			linearRamp->lastdXRest = (abs(tempActualTargetPosition) % 1000);
 402              		.loc 1 128 3 is_stmt 1 view .LVU134
 128:TMC-API/tmc/ramp/LinearRamp.c **** 			linearRamp->lastdXRest = (abs(tempActualTargetPosition) % 1000);
 403              		.loc 1 128 6 is_stmt 0 view .LVU135
 404 016e 0029     		cmp	r1, #0
 405 0170 1DDB     		blt	.L18
 129:TMC-API/tmc/ramp/LinearRamp.c **** 		else if (tempActualTargetPosition < 0)
 406              		.loc 1 129 4 is_stmt 1 view .LVU136
 129:TMC-API/tmc/ramp/LinearRamp.c **** 		else if (tempActualTargetPosition < 0)
 407              		.loc 1 129 60 is_stmt 0 view .LVU137
 408 0172 194B     		ldr	r3, .L25
 129:TMC-API/tmc/ramp/LinearRamp.c **** 		else if (tempActualTargetPosition < 0)
 409              		.loc 1 129 30 view .LVU138
 410 0174 80EAE072 		eor	r2, r0, r0, asr #31
 411 0178 A2EBE072 		sub	r2, r2, r0, asr #31
 129:TMC-API/tmc/ramp/LinearRamp.c **** 		else if (tempActualTargetPosition < 0)
 412              		.loc 1 129 60 view .LVU139
 413 017c A3FB0253 		umull	r5, r3, r3, r2
 414 0180 9B09     		lsrs	r3, r3, #6
 415 0182 06FB1323 		mls	r3, r6, r3, r2
 416              	.L19:
 417 0186 2362     		str	r3, [r4, #32]
 134:TMC-API/tmc/ramp/LinearRamp.c **** 	}
 418              		.loc 1 134 3 is_stmt 1 view .LVU140
 134:TMC-API/tmc/ramp/LinearRamp.c **** 	}
 419              		.loc 1 134 55 is_stmt 0 view .LVU141
 420 0188 4FF47A72 		mov	r2, #1000
 421 018c 0023     		movs	r3, #0
 422 018e FFF7FEFF 		bl	__aeabi_ldivmod
 423              	.LVL41:
 134:TMC-API/tmc/ramp/LinearRamp.c **** 	}
 424              		.loc 1 134 28 view .LVU142
 425 0192 A060     		str	r0, [r4, #8]
 426              	.LBE4:
 427              		.loc 1 141 1 view .LVU143
 428 0194 02B0     		add	sp, sp, #8
 429              	.LCFI5:
 430              		.cfi_remember_state
 431              		.cfi_def_cfa_offset 16
 432              		@ sp needed
 433 0196 70BD     		pop	{r4, r5, r6, pc}
 434              	.LVL42:
 435              	.L23:
 436              	.LCFI6:
 437              		.cfi_restore_state
 438              	.LBB5:
  85:TMC-API/tmc/ramp/LinearRamp.c **** 		}
 439              		.loc 1 85 4 is_stmt 1 view .LVU144
  85:TMC-API/tmc/ramp/LinearRamp.c **** 		}
 440              		.loc 1 85 28 is_stmt 0 view .LVU145
 441 0198 0021     		movs	r1, #0
 442 019a 2268     		ldr	r2, [r4]
 443 019c FFF7FEFF 		bl	tmc_limitInt
 444              	.LVL43:
  85:TMC-API/tmc/ramp/LinearRamp.c **** 		}
 445              		.loc 1 85 28 view .LVU146
 446 01a0 0546     		mov	r5, r0
 447              	.LVL44:
  85:TMC-API/tmc/ramp/LinearRamp.c **** 		}
 448              		.loc 1 85 28 view .LVU147
 449 01a2 ADE7     		b	.L14
 450              	.LVL45:
 451              	.L16:
 111:TMC-API/tmc/ramp/LinearRamp.c **** 		{
 452              		.loc 1 111 8 is_stmt 1 view .LVU148
 111:TMC-API/tmc/ramp/LinearRamp.c **** 		{
 453              		.loc 1 111 11 is_stmt 0 view .LVU149
 454 01a4 D3DD     		ble	.L17
 113:TMC-API/tmc/ramp/LinearRamp.c **** 		}
 455              		.loc 1 113 4 is_stmt 1 view .LVU150
 113:TMC-API/tmc/ramp/LinearRamp.c **** 		}
 456              		.loc 1 113 35 is_stmt 0 view .LVU151
 457 01a6 821A     		subs	r2, r0, r2
 113:TMC-API/tmc/ramp/LinearRamp.c **** 		}
 458              		.loc 1 113 29 view .LVU152
 459 01a8 1144     		add	r1, r1, r2
 460              	.LVL46:
 113:TMC-API/tmc/ramp/LinearRamp.c **** 		}
 461              		.loc 1 113 29 view .LVU153
 462 01aa 2161     		str	r1, [r4, #16]
 463              	.LVL47:
 113:TMC-API/tmc/ramp/LinearRamp.c **** 		}
 464              		.loc 1 113 29 view .LVU154
 465 01ac CFE7     		b	.L17
 466              	.LVL48:
 467              	.L18:
 130:TMC-API/tmc/ramp/LinearRamp.c **** 			linearRamp->lastdXRest = -(abs(tempActualTargetPosition) % 1000);
 468              		.loc 1 130 8 is_stmt 1 view .LVU155
 131:TMC-API/tmc/ramp/LinearRamp.c **** 
 469              		.loc 1 131 4 view .LVU156
 131:TMC-API/tmc/ramp/LinearRamp.c **** 
 470              		.loc 1 131 61 is_stmt 0 view .LVU157
 471 01ae 0A4A     		ldr	r2, .L25
 131:TMC-API/tmc/ramp/LinearRamp.c **** 
 472              		.loc 1 131 31 view .LVU158
 473 01b0 80EAE073 		eor	r3, r0, r0, asr #31
 474 01b4 A3EBE073 		sub	r3, r3, r0, asr #31
 131:TMC-API/tmc/ramp/LinearRamp.c **** 
 475              		.loc 1 131 61 view .LVU159
 476 01b8 A2FB0352 		umull	r5, r2, r2, r3
 477 01bc 9209     		lsrs	r2, r2, #6
 478 01be 06FB1233 		mls	r3, r6, r2, r3
 131:TMC-API/tmc/ramp/LinearRamp.c **** 
 479              		.loc 1 131 29 view .LVU160
 480 01c2 5B42     		rsbs	r3, r3, #0
 481 01c4 DFE7     		b	.L19
 482              	.LVL49:
 483              	.L24:
  89:TMC-API/tmc/ramp/LinearRamp.c **** 		}
 484              		.loc 1 89 4 is_stmt 1 view .LVU161
  89:TMC-API/tmc/ramp/LinearRamp.c **** 		}
 485              		.loc 1 89 28 is_stmt 0 view .LVU162
 486 01c6 2168     		ldr	r1, [r4]
 487 01c8 0022     		movs	r2, #0
 488 01ca 4942     		rsbs	r1, r1, #0
 489 01cc 4042     		rsbs	r0, r0, #0
 490              	.LVL50:
  89:TMC-API/tmc/ramp/LinearRamp.c **** 		}
 491              		.loc 1 89 28 view .LVU163
 492 01ce FFF7FEFF 		bl	tmc_limitInt
 493              	.LVL51:
  89:TMC-API/tmc/ramp/LinearRamp.c **** 		}
 494              		.loc 1 89 28 view .LVU164
 495 01d2 0546     		mov	r5, r0
 496              	.LVL52:
  89:TMC-API/tmc/ramp/LinearRamp.c **** 		}
 497              		.loc 1 89 28 view .LVU165
 498 01d4 94E7     		b	.L14
 499              	.L26:
 500 01d6 00BF     		.align	2
 501              	.L25:
 502 01d8 D34D6210 		.word	274877907
 503              	.LBE5:
 504              		.cfi_endproc
 505              	.LFE2:
 507              	.Letext0:
 508              		.file 2 "c:\\program files (x86)\\gnu arm embedded toolchain\\10 2021.10\\arm-none-eabi\\include\\
 509              		.file 3 "c:\\program files (x86)\\gnu arm embedded toolchain\\10 2021.10\\arm-none-eabi\\include\\
 510              		.file 4 "TMC-API/tmc/ramp/LinearRamp.h"
 511              		.file 5 "./TMC-API/tmc/helpers/Functions.h"