   1              		.cpu cortex-m3
   2              		.arch armv7-m
   3              		.fpu softvfp
   4              		.eabi_attribute 20, 1
   5              		.eabi_attribute 21, 1
   6              		.eabi_attribute 23, 3
   7              		.eabi_attribute 24, 1
   8              		.eabi_attribute 25, 1
   9              		.eabi_attribute 26, 1
  10              		.eabi_attribute 30, 2
  11              		.eabi_attribute 34, 1
  12              		.eabi_attribute 18, 4
  13              		.file	"LIS2DH12.c"
  14              		.text
  15              	.Ltext0:
  16              		.cfi_sections	.debug_frame
  17              		.align	1
  18              		.p2align 2,,3
  19              		.global	LIS2DH12_spi_init
  20              		.syntax unified
  21              		.thumb
  22              		.thumb_func
  24              	LIS2DH12_spi_init:
  25              	.LFB0:
  26              		.file 1 "hal/ic/LIS2DH12.c"
   1:hal/ic/LIS2DH12.c **** /*
   2:hal/ic/LIS2DH12.c ****  * LIS2DH12.c
   3:hal/ic/LIS2DH12.c ****  *
   4:hal/ic/LIS2DH12.c ****  *  Created on: 07.02.2019
   5:hal/ic/LIS2DH12.c ****  *      Author: MO
   6:hal/ic/LIS2DH12.c ****  */
   7:hal/ic/LIS2DH12.c **** #include "LIS2DH12.h"
   8:hal/ic/LIS2DH12.c **** 
   9:hal/ic/LIS2DH12.c **** 	// forward declaration
  10:hal/ic/LIS2DH12.c **** 	void LIS2DH12_interrupt();
  11:hal/ic/LIS2DH12.c **** 
  12:hal/ic/LIS2DH12.c **** // SPI configuration
  13:hal/ic/LIS2DH12.c **** void LIS2DH12_spi_init()
  14:hal/ic/LIS2DH12.c **** {
  27              		.loc 1 14 1 view -0
  28              		.cfi_startproc
  29              		@ args = 0, pretend = 0, frame = 24
  30              		@ frame_needed = 0, uses_anonymous_args = 0
  15:hal/ic/LIS2DH12.c **** 	// enable clock for SPI?
  16:hal/ic/LIS2DH12.c **** 	RCC_APB2PeriphClockCmd(RCC_APB2Periph_SPI1, ENABLE);
  31              		.loc 1 16 2 view .LVU1
  14:hal/ic/LIS2DH12.c **** 	// enable clock for SPI?
  32              		.loc 1 14 1 is_stmt 0 view .LVU2
  33 0000 30B5     		push	{r4, r5, lr}
  34              	.LCFI0:
  35              		.cfi_def_cfa_offset 12
  36              		.cfi_offset 4, -12
  37              		.cfi_offset 5, -8
  38              		.cfi_offset 14, -4
  39              		.loc 1 16 2 view .LVU3
  40 0002 0121     		movs	r1, #1
  14:hal/ic/LIS2DH12.c **** 	// enable clock for SPI?
  41              		.loc 1 14 1 view .LVU4
  42 0004 87B0     		sub	sp, sp, #28
  43              	.LCFI1:
  44              		.cfi_def_cfa_offset 40
  45              		.loc 1 16 2 view .LVU5
  46 0006 4FF48050 		mov	r0, #4096
  47 000a FFF7FEFF 		bl	RCC_APB2PeriphClockCmd
  48              	.LVL0:
  17:hal/ic/LIS2DH12.c **** 
  18:hal/ic/LIS2DH12.c **** 	// enable clock for GPIOA
  19:hal/ic/LIS2DH12.c **** 	RCC_APB2PeriphClockCmd(RCC_APB2Periph_GPIOA, ENABLE);
  49              		.loc 1 19 2 is_stmt 1 view .LVU6
  50 000e 0121     		movs	r1, #1
  51 0010 0420     		movs	r0, #4
  52 0012 FFF7FEFF 		bl	RCC_APB2PeriphClockCmd
  53              	.LVL1:
  20:hal/ic/LIS2DH12.c **** 
  21:hal/ic/LIS2DH12.c **** 	// use pins A5..B7 for SPI1
  22:hal/ic/LIS2DH12.c **** 	GPIO_InitTypeDef GPIO_InitStructure;
  54              		.loc 1 22 2 view .LVU7
  23:hal/ic/LIS2DH12.c **** 	GPIO_InitStructure.GPIO_Pin = GPIO_Pin_5|GPIO_Pin_6|GPIO_Pin_7;
  55              		.loc 1 23 2 view .LVU8
  24:hal/ic/LIS2DH12.c **** 	GPIO_InitStructure.GPIO_Speed = GPIO_Speed_50MHz;
  56              		.loc 1 24 2 view .LVU9
  25:hal/ic/LIS2DH12.c **** 	GPIO_InitStructure.GPIO_Mode = GPIO_Mode_AF_PP;
  57              		.loc 1 25 2 view .LVU10
  23:hal/ic/LIS2DH12.c **** 	GPIO_InitStructure.GPIO_Pin = GPIO_Pin_5|GPIO_Pin_6|GPIO_Pin_7;
  58              		.loc 1 23 30 is_stmt 0 view .LVU11
  59 0016 E022     		movs	r2, #224
  24:hal/ic/LIS2DH12.c **** 	GPIO_InitStructure.GPIO_Speed = GPIO_Speed_50MHz;
  60              		.loc 1 24 32 view .LVU12
  61 0018 41F60303 		movw	r3, #6147
  26:hal/ic/LIS2DH12.c **** 	GPIO_Init(GPIOA, &GPIO_InitStructure);
  62              		.loc 1 26 2 view .LVU13
  63 001c 6946     		mov	r1, sp
  64 001e 1548     		ldr	r0, .L4
  23:hal/ic/LIS2DH12.c **** 	GPIO_InitStructure.GPIO_Speed = GPIO_Speed_50MHz;
  65              		.loc 1 23 30 view .LVU14
  66 0020 ADF80020 		strh	r2, [sp]	@ movhi
  24:hal/ic/LIS2DH12.c **** 	GPIO_InitStructure.GPIO_Mode = GPIO_Mode_AF_PP;
  67              		.loc 1 24 32 view .LVU15
  68 0024 ADF80230 		strh	r3, [sp, #2]	@ movhi
  69              		.loc 1 26 2 is_stmt 1 view .LVU16
  70 0028 FFF7FEFF 		bl	GPIO_Init
  71              	.LVL2:
  27:hal/ic/LIS2DH12.c **** 
  28:hal/ic/LIS2DH12.c **** 	// initialize SPI1
  29:hal/ic/LIS2DH12.c **** 	SPI_InitTypeDef SPIInit;
  72              		.loc 1 29 2 view .LVU17
  30:hal/ic/LIS2DH12.c **** 	SPIInit.SPI_Direction			=	SPI_Direction_2Lines_FullDuplex;
  73              		.loc 1 30 2 view .LVU18
  31:hal/ic/LIS2DH12.c **** 	SPIInit.SPI_Mode				=	SPI_Mode_Master;
  74              		.loc 1 31 22 is_stmt 0 view .LVU19
  75 002c 4FF48271 		mov	r1, #260
  32:hal/ic/LIS2DH12.c **** 	SPIInit.SPI_DataSize			=	SPI_DataSize_8b;
  33:hal/ic/LIS2DH12.c **** 	SPIInit.SPI_CPOL				=	SPI_CPOL_Low;
  34:hal/ic/LIS2DH12.c **** 	SPIInit.SPI_CPHA				=	SPI_CPHA_2Edge;
  35:hal/ic/LIS2DH12.c **** 	SPIInit.SPI_NSS					=	SPI_NSS_Soft;
  36:hal/ic/LIS2DH12.c **** 	SPIInit.SPI_BaudRatePrescaler	=	SPI_BaudRatePrescaler_8;
  76              		.loc 1 36 32 view .LVU20
  77 0030 1020     		movs	r0, #16
  30:hal/ic/LIS2DH12.c **** 	SPIInit.SPI_Mode				=	SPI_Mode_Master;
  78              		.loc 1 30 26 view .LVU21
  79 0032 0023     		movs	r3, #0
  35:hal/ic/LIS2DH12.c **** 	SPIInit.SPI_BaudRatePrescaler	=	SPI_BaudRatePrescaler_8;
  80              		.loc 1 35 22 view .LVU22
  81 0034 4FF40072 		mov	r2, #512
  34:hal/ic/LIS2DH12.c **** 	SPIInit.SPI_NSS					=	SPI_NSS_Soft;
  82              		.loc 1 34 22 view .LVU23
  83 0038 0125     		movs	r5, #1
  37:hal/ic/LIS2DH12.c **** 	SPIInit.SPI_FirstBit			=	SPI_FirstBit_MSB;
  38:hal/ic/LIS2DH12.c **** 	SPIInit.SPI_CRCPolynomial		=	0;
  39:hal/ic/LIS2DH12.c **** 	SPI_Init(SPI1, &SPIInit);
  84              		.loc 1 39 2 view .LVU24
  85 003a 0F4C     		ldr	r4, .L4+4
  36:hal/ic/LIS2DH12.c **** 	SPIInit.SPI_FirstBit			=	SPI_FirstBit_MSB;
  86              		.loc 1 36 32 view .LVU25
  87 003c ADF81000 		strh	r0, [sp, #16]	@ movhi
  31:hal/ic/LIS2DH12.c **** 	SPIInit.SPI_DataSize			=	SPI_DataSize_8b;
  88              		.loc 1 31 22 view .LVU26
  89 0040 ADF80610 		strh	r1, [sp, #6]	@ movhi
  90              		.loc 1 39 2 view .LVU27
  91 0044 2046     		mov	r0, r4
  92 0046 01A9     		add	r1, sp, #4
  30:hal/ic/LIS2DH12.c **** 	SPIInit.SPI_Mode				=	SPI_Mode_Master;
  93              		.loc 1 30 26 view .LVU28
  94 0048 ADF80430 		strh	r3, [sp, #4]	@ movhi
  31:hal/ic/LIS2DH12.c **** 	SPIInit.SPI_DataSize			=	SPI_DataSize_8b;
  95              		.loc 1 31 2 is_stmt 1 view .LVU29
  32:hal/ic/LIS2DH12.c **** 	SPIInit.SPI_CPOL				=	SPI_CPOL_Low;
  96              		.loc 1 32 2 view .LVU30
  32:hal/ic/LIS2DH12.c **** 	SPIInit.SPI_CPOL				=	SPI_CPOL_Low;
  97              		.loc 1 32 25 is_stmt 0 view .LVU31
  98 004c ADF80830 		strh	r3, [sp, #8]	@ movhi
  33:hal/ic/LIS2DH12.c **** 	SPIInit.SPI_CPHA				=	SPI_CPHA_2Edge;
  99              		.loc 1 33 2 is_stmt 1 view .LVU32
  33:hal/ic/LIS2DH12.c **** 	SPIInit.SPI_CPHA				=	SPI_CPHA_2Edge;
 100              		.loc 1 33 22 is_stmt 0 view .LVU33
 101 0050 ADF80A30 		strh	r3, [sp, #10]	@ movhi
  34:hal/ic/LIS2DH12.c **** 	SPIInit.SPI_NSS					=	SPI_NSS_Soft;
 102              		.loc 1 34 2 is_stmt 1 view .LVU34
  35:hal/ic/LIS2DH12.c **** 	SPIInit.SPI_BaudRatePrescaler	=	SPI_BaudRatePrescaler_8;
 103              		.loc 1 35 2 view .LVU35
  35:hal/ic/LIS2DH12.c **** 	SPIInit.SPI_BaudRatePrescaler	=	SPI_BaudRatePrescaler_8;
 104              		.loc 1 35 22 is_stmt 0 view .LVU36
 105 0054 ADF80E20 		strh	r2, [sp, #14]	@ movhi
  36:hal/ic/LIS2DH12.c **** 	SPIInit.SPI_FirstBit			=	SPI_FirstBit_MSB;
 106              		.loc 1 36 2 is_stmt 1 view .LVU37
  37:hal/ic/LIS2DH12.c **** 	SPIInit.SPI_CRCPolynomial		=	0;
 107              		.loc 1 37 2 view .LVU38
  37:hal/ic/LIS2DH12.c **** 	SPIInit.SPI_CRCPolynomial		=	0;
 108              		.loc 1 37 25 is_stmt 0 view .LVU39
 109 0058 ADF81230 		strh	r3, [sp, #18]	@ movhi
  38:hal/ic/LIS2DH12.c **** 	SPI_Init(SPI1, &SPIInit);
 110              		.loc 1 38 2 is_stmt 1 view .LVU40
  38:hal/ic/LIS2DH12.c **** 	SPI_Init(SPI1, &SPIInit);
 111              		.loc 1 38 29 is_stmt 0 view .LVU41
 112 005c ADF81430 		strh	r3, [sp, #20]	@ movhi
 113              		.loc 1 39 2 is_stmt 1 view .LVU42
  34:hal/ic/LIS2DH12.c **** 	SPIInit.SPI_NSS					=	SPI_NSS_Soft;
 114              		.loc 1 34 22 is_stmt 0 view .LVU43
 115 0060 ADF80C50 		strh	r5, [sp, #12]	@ movhi
 116              		.loc 1 39 2 view .LVU44
 117 0064 FFF7FEFF 		bl	SPI_Init
 118              	.LVL3:
  40:hal/ic/LIS2DH12.c **** 
  41:hal/ic/LIS2DH12.c **** 	SPI_Cmd(SPI1, ENABLE);
 119              		.loc 1 41 2 is_stmt 1 view .LVU45
 120 0068 2946     		mov	r1, r5
 121 006a 2046     		mov	r0, r4
 122 006c FFF7FEFF 		bl	SPI_Cmd
 123              	.LVL4:
  42:hal/ic/LIS2DH12.c **** }
 124              		.loc 1 42 1 is_stmt 0 view .LVU46
 125 0070 07B0     		add	sp, sp, #28
 126              	.LCFI2:
 127              		.cfi_def_cfa_offset 12
 128              		@ sp needed
 129 0072 30BD     		pop	{r4, r5, pc}
 130              	.L5:
 131              		.align	2
 132              	.L4:
 133 0074 00080140 		.word	1073809408
 134 0078 00300140 		.word	1073819648
 135              		.cfi_endproc
 136              	.LFE0:
 138              		.align	1
 139              		.p2align 2,,3
 140              		.global	LIS2DH12_spi_readWriteByte
 141              		.syntax unified
 142              		.thumb
 143              		.thumb_func
 145              	LIS2DH12_spi_readWriteByte:
 146              	.LVL5:
 147              	.LFB1:
  43:hal/ic/LIS2DH12.c **** 
  44:hal/ic/LIS2DH12.c **** u8 LIS2DH12_spi_readWriteByte(u8 data, u8 lastTransfer)
  45:hal/ic/LIS2DH12.c **** {
 148              		.loc 1 45 1 is_stmt 1 view -0
 149              		.cfi_startproc
 150              		@ args = 0, pretend = 0, frame = 0
 151              		@ frame_needed = 0, uses_anonymous_args = 0
  46:hal/ic/LIS2DH12.c **** 	SPI_TypeDef *spiChannel = SPI1;
 152              		.loc 1 46 2 view .LVU48
  47:hal/ic/LIS2DH12.c **** 
  48:hal/ic/LIS2DH12.c **** 	// set CS signal low
  49:hal/ic/LIS2DH12.c **** 	tmcm_enableCsLIS2DH12();
 153              		.loc 1 49 2 view .LVU49
  45:hal/ic/LIS2DH12.c **** 	SPI_TypeDef *spiChannel = SPI1;
 154              		.loc 1 45 1 is_stmt 0 view .LVU50
 155 007c 70B5     		push	{r4, r5, r6, lr}
 156              	.LCFI3:
 157              		.cfi_def_cfa_offset 16
 158              		.cfi_offset 4, -16
 159              		.cfi_offset 5, -12
 160              		.cfi_offset 6, -8
 161              		.cfi_offset 14, -4
  45:hal/ic/LIS2DH12.c **** 	SPI_TypeDef *spiChannel = SPI1;
 162              		.loc 1 45 1 view .LVU51
 163 007e 0646     		mov	r6, r0
 164 0080 0D46     		mov	r5, r1
  50:hal/ic/LIS2DH12.c **** 
  51:hal/ic/LIS2DH12.c **** 	while(SPI_I2S_GetFlagStatus(spiChannel, SPI_I2S_FLAG_TXE)==RESET);
 165              		.loc 1 51 8 view .LVU52
 166 0082 0F4C     		ldr	r4, .L19
  49:hal/ic/LIS2DH12.c **** 
 167              		.loc 1 49 2 view .LVU53
 168 0084 FFF7FEFF 		bl	tmcm_enableCsLIS2DH12
 169              	.LVL6:
 170              		.loc 1 51 2 is_stmt 1 view .LVU54
 171              	.L7:
 172              		.loc 1 51 67 discriminator 1 view .LVU55
 173              		.loc 1 51 7 discriminator 1 view .LVU56
 174              		.loc 1 51 8 is_stmt 0 discriminator 1 view .LVU57
 175 0088 0221     		movs	r1, #2
 176 008a 2046     		mov	r0, r4
 177 008c FFF7FEFF 		bl	SPI_I2S_GetFlagStatus
 178              	.LVL7:
 179              		.loc 1 51 7 discriminator 1 view .LVU58
 180 0090 0028     		cmp	r0, #0
 181 0092 F9D0     		beq	.L7
  52:hal/ic/LIS2DH12.c **** 	SPI_I2S_SendData(spiChannel, data);
 182              		.loc 1 52 2 is_stmt 1 view .LVU59
 183 0094 3146     		mov	r1, r6
 184 0096 0A48     		ldr	r0, .L19
 185 0098 FFF7FEFF 		bl	SPI_I2S_SendData
 186              	.LVL8:
  53:hal/ic/LIS2DH12.c **** 	while(SPI_I2S_GetFlagStatus(spiChannel, SPI_I2S_FLAG_RXNE)==RESET);
 187              		.loc 1 53 2 view .LVU60
 188              		.loc 1 53 8 is_stmt 0 view .LVU61
 189 009c 084C     		ldr	r4, .L19
 190              	.L8:
 191              		.loc 1 53 68 is_stmt 1 discriminator 1 view .LVU62
 192              		.loc 1 53 7 discriminator 1 view .LVU63
 193              		.loc 1 53 8 is_stmt 0 discriminator 1 view .LVU64
 194 009e 0121     		movs	r1, #1
 195 00a0 2046     		mov	r0, r4
 196 00a2 FFF7FEFF 		bl	SPI_I2S_GetFlagStatus
 197              	.LVL9:
 198              		.loc 1 53 7 discriminator 1 view .LVU65
 199 00a6 0028     		cmp	r0, #0
 200 00a8 F9D0     		beq	.L8
  54:hal/ic/LIS2DH12.c **** 	u8 dataST = SPI_I2S_ReceiveData(spiChannel);
 201              		.loc 1 54 2 is_stmt 1 view .LVU66
 202              		.loc 1 54 14 is_stmt 0 view .LVU67
 203 00aa 0548     		ldr	r0, .L19
 204 00ac FFF7FEFF 		bl	SPI_I2S_ReceiveData
 205              	.LVL10:
 206              		.loc 1 54 5 view .LVU68
 207 00b0 C4B2     		uxtb	r4, r0
 208              	.LVL11:
  55:hal/ic/LIS2DH12.c **** 
  56:hal/ic/LIS2DH12.c **** 	// set CS signal high after last transfer
  57:hal/ic/LIS2DH12.c **** 	if(lastTransfer)
 209              		.loc 1 57 2 is_stmt 1 view .LVU69
 210              		.loc 1 57 4 is_stmt 0 view .LVU70
 211 00b2 0DB9     		cbnz	r5, .L18
  58:hal/ic/LIS2DH12.c **** 		tmcm_disableCsLIS2DH12();
  59:hal/ic/LIS2DH12.c **** 
  60:hal/ic/LIS2DH12.c **** 	return dataST;
 212              		.loc 1 60 2 is_stmt 1 view .LVU71
  61:hal/ic/LIS2DH12.c **** }
 213              		.loc 1 61 1 is_stmt 0 view .LVU72
 214 00b4 2046     		mov	r0, r4
 215 00b6 70BD     		pop	{r4, r5, r6, pc}
 216              	.LVL12:
 217              	.L18:
  58:hal/ic/LIS2DH12.c **** 		tmcm_disableCsLIS2DH12();
 218              		.loc 1 58 3 is_stmt 1 view .LVU73
 219 00b8 FFF7FEFF 		bl	tmcm_disableCsLIS2DH12
 220              	.LVL13:
  60:hal/ic/LIS2DH12.c **** }
 221              		.loc 1 60 2 view .LVU74
 222              		.loc 1 61 1 is_stmt 0 view .LVU75
 223 00bc 2046     		mov	r0, r4
 224 00be 70BD     		pop	{r4, r5, r6, pc}
 225              	.LVL14:
 226              	.L20:
 227              		.loc 1 61 1 view .LVU76
 228              		.align	2
 229              	.L19:
 230 00c0 00300140 		.word	1073819648
 231              		.cfi_endproc
 232              	.LFE1:
 234              		.align	1
 235              		.p2align 2,,3
 236              		.global	LIS2DH12_spi_writeInt
 237              		.syntax unified
 238              		.thumb
 239              		.thumb_func
 241              	LIS2DH12_spi_writeInt:
 242              	.LVL15:
 243              	.LFB2:
  62:hal/ic/LIS2DH12.c **** 
  63:hal/ic/LIS2DH12.c **** void LIS2DH12_spi_writeInt(uint8_t address, int32_t value)
  64:hal/ic/LIS2DH12.c **** {
 244              		.loc 1 64 1 is_stmt 1 view -0
 245              		.cfi_startproc
 246              		@ args = 0, pretend = 0, frame = 0
 247              		@ frame_needed = 0, uses_anonymous_args = 0
  65:hal/ic/LIS2DH12.c **** 	LIS2DH12_spi_readWriteByte(address & 0x3F, false);
 248              		.loc 1 65 2 view .LVU78
  64:hal/ic/LIS2DH12.c **** 	LIS2DH12_spi_readWriteByte(address & 0x3F, false);
 249              		.loc 1 64 1 is_stmt 0 view .LVU79
 250 00c4 10B5     		push	{r4, lr}
 251              	.LCFI4:
 252              		.cfi_def_cfa_offset 8
 253              		.cfi_offset 4, -8
 254              		.cfi_offset 14, -4
  64:hal/ic/LIS2DH12.c **** 	LIS2DH12_spi_readWriteByte(address & 0x3F, false);
 255              		.loc 1 64 1 view .LVU80
 256 00c6 0C46     		mov	r4, r1
 257              		.loc 1 65 2 view .LVU81
 258 00c8 00F03F00 		and	r0, r0, #63
 259              	.LVL16:
 260              		.loc 1 65 2 view .LVU82
 261 00cc 0021     		movs	r1, #0
 262              	.LVL17:
 263              		.loc 1 65 2 view .LVU83
 264 00ce FFF7FEFF 		bl	LIS2DH12_spi_readWriteByte
 265              	.LVL18:
  66:hal/ic/LIS2DH12.c **** 	LIS2DH12_spi_readWriteByte(0xFF & (value>>0), true);
 266              		.loc 1 66 2 is_stmt 1 view .LVU84
 267 00d2 E0B2     		uxtb	r0, r4
 268 00d4 0121     		movs	r1, #1
  67:hal/ic/LIS2DH12.c **** }
 269              		.loc 1 67 1 is_stmt 0 view .LVU85
 270 00d6 BDE81040 		pop	{r4, lr}
 271              	.LCFI5:
 272              		.cfi_restore 14
 273              		.cfi_restore 4
 274              		.cfi_def_cfa_offset 0
 275              	.LVL19:
  66:hal/ic/LIS2DH12.c **** 	LIS2DH12_spi_readWriteByte(0xFF & (value>>0), true);
 276              		.loc 1 66 2 view .LVU86
 277 00da FFF7FEBF 		b	LIS2DH12_spi_readWriteByte
 278              	.LVL20:
 279              		.cfi_endproc
 280              	.LFE2:
 282              		.align	1
 283 00de 00BF     		.p2align 2,,3
 284              		.global	LIS2DH12_spi_readInt
 285              		.syntax unified
 286              		.thumb
 287              		.thumb_func
 289              	LIS2DH12_spi_readInt:
 290              	.LVL21:
 291              	.LFB3:
  68:hal/ic/LIS2DH12.c **** 
  69:hal/ic/LIS2DH12.c **** int LIS2DH12_spi_readInt(uint8_t address)
  70:hal/ic/LIS2DH12.c **** {
 292              		.loc 1 70 1 is_stmt 1 view -0
 293              		.cfi_startproc
 294              		@ args = 0, pretend = 0, frame = 0
 295              		@ frame_needed = 0, uses_anonymous_args = 0
  71:hal/ic/LIS2DH12.c **** 	LIS2DH12_spi_readWriteByte(address | 0x80, false);
 296              		.loc 1 71 2 view .LVU88
  70:hal/ic/LIS2DH12.c **** 	LIS2DH12_spi_readWriteByte(address | 0x80, false);
 297              		.loc 1 70 1 is_stmt 0 view .LVU89
 298 00e0 08B5     		push	{r3, lr}
 299              	.LCFI6:
 300              		.cfi_def_cfa_offset 8
 301              		.cfi_offset 3, -8
 302              		.cfi_offset 14, -4
 303              		.loc 1 71 2 view .LVU90
 304 00e2 0021     		movs	r1, #0
 305 00e4 40F08000 		orr	r0, r0, #128
 306              	.LVL22:
 307              		.loc 1 71 2 view .LVU91
 308 00e8 FFF7FEFF 		bl	LIS2DH12_spi_readWriteByte
 309              	.LVL23:
  72:hal/ic/LIS2DH12.c **** 	int value = LIS2DH12_spi_readWriteByte(0, true);
 310              		.loc 1 72 2 is_stmt 1 view .LVU92
 311              		.loc 1 72 14 is_stmt 0 view .LVU93
 312 00ec 0121     		movs	r1, #1
 313 00ee 0020     		movs	r0, #0
 314 00f0 FFF7FEFF 		bl	LIS2DH12_spi_readWriteByte
 315              	.LVL24:
  73:hal/ic/LIS2DH12.c **** 	return value & 0xFF;
 316              		.loc 1 73 2 is_stmt 1 view .LVU94
  74:hal/ic/LIS2DH12.c **** }
 317              		.loc 1 74 1 is_stmt 0 view .LVU95
 318 00f4 08BD     		pop	{r3, pc}
 319              		.cfi_endproc
 320              	.LFE3:
 322              		.align	1
 323 00f6 00BF     		.p2align 2,,3
 324              		.global	LIS2DH12_interrupt
 325              		.syntax unified
 326              		.thumb
 327              		.thumb_func
 329              	LIS2DH12_interrupt:
 330              	.LFB5:
  75:hal/ic/LIS2DH12.c **** 
  76:hal/ic/LIS2DH12.c **** void LI2DH12_init()
  77:hal/ic/LIS2DH12.c **** {
  78:hal/ic/LIS2DH12.c **** 	LIS2DH12_spi_writeInt(LIS2DH12_CTRL_REG0, 0x90);			// pull down on SDO
  79:hal/ic/LIS2DH12.c **** 
  80:hal/ic/LIS2DH12.c **** 	if (LIS2DH12_spi_readInt(LIS2DH12_WHO_AM_I) == WHO_AM_I)
  81:hal/ic/LIS2DH12.c **** 	{
  82:hal/ic/LIS2DH12.c **** 		LIS2DH12_spi_writeInt(LIS2DH12_TEMP_CFG_REG, 0xC0);		// temperature sensor enabled
  83:hal/ic/LIS2DH12.c **** 		LIS2DH12_spi_writeInt(LIS2DH12_CTRL_REG1, 0x2F);		// 10Hz; low power mode; XYZ enabled
  84:hal/ic/LIS2DH12.c **** 		LIS2DH12_spi_writeInt(LIS2DH12_CTRL_REG2, 0x0);			// filter disabled
  85:hal/ic/LIS2DH12.c **** 		LIS2DH12_spi_writeInt(LIS2DH12_CTRL_REG3, 0x0);			// interrupts disabled
  86:hal/ic/LIS2DH12.c **** 		LIS2DH12_spi_writeInt(LIS2DH12_CTRL_REG4, 0x0);			// +- 2.0g enabled; 4-wire SPI enabled
  87:hal/ic/LIS2DH12.c **** 		LIS2DH12_spi_writeInt(LIS2DH12_CTRL_REG5, 0x0);
  88:hal/ic/LIS2DH12.c **** 		LIS2DH12_spi_writeInt(LIS2DH12_CTRL_REG6, 0x0);
  89:hal/ic/LIS2DH12.c **** 	}
  90:hal/ic/LIS2DH12.c **** 	LIS2DH12_spi_writeInt(LIS2DH12_CTRL_REG0, 0x90);			// pull down on SDO
  91:hal/ic/LIS2DH12.c **** 
  92:hal/ic/LIS2DH12.c **** 	LIS2DH12_interrupt();
  93:hal/ic/LIS2DH12.c **** }
  94:hal/ic/LIS2DH12.c **** 
  95:hal/ic/LIS2DH12.c **** void LIS2DH12_interrupt()
  96:hal/ic/LIS2DH12.c **** {
 331              		.loc 1 96 1 is_stmt 1 view -0
 332              		.cfi_startproc
 333              		@ args = 0, pretend = 0, frame = 0
 334              		@ frame_needed = 0, uses_anonymous_args = 0
  97:hal/ic/LIS2DH12.c **** 	LIS2DH12_spi_writeInt(LIS2DH12_CTRL_REG1, 0x2F);			// 10Hz; low power mode; XYZ enabled
 335              		.loc 1 97 2 view .LVU97
 336              	.LVL25:
 337              	.LBB14:
 338              	.LBI14:
  63:hal/ic/LIS2DH12.c **** {
 339              		.loc 1 63 6 view .LVU98
 340              	.LBB15:
  65:hal/ic/LIS2DH12.c **** 	LIS2DH12_spi_readWriteByte(0xFF & (value>>0), true);
 341              		.loc 1 65 2 view .LVU99
 342              	.LBE15:
 343              	.LBE14:
  96:hal/ic/LIS2DH12.c **** 	LIS2DH12_spi_writeInt(LIS2DH12_CTRL_REG1, 0x2F);			// 10Hz; low power mode; XYZ enabled
 344              		.loc 1 96 1 is_stmt 0 view .LVU100
 345 00f8 08B5     		push	{r3, lr}
 346              	.LCFI7:
 347              		.cfi_def_cfa_offset 8
 348              		.cfi_offset 3, -8
 349              		.cfi_offset 14, -4
 350              	.LBB17:
 351              	.LBB16:
  65:hal/ic/LIS2DH12.c **** 	LIS2DH12_spi_readWriteByte(0xFF & (value>>0), true);
 352              		.loc 1 65 2 view .LVU101
 353 00fa 0021     		movs	r1, #0
 354 00fc 2020     		movs	r0, #32
 355 00fe FFF7FEFF 		bl	LIS2DH12_spi_readWriteByte
 356              	.LVL26:
  66:hal/ic/LIS2DH12.c **** }
 357              		.loc 1 66 2 is_stmt 1 view .LVU102
 358 0102 0121     		movs	r1, #1
 359 0104 2F20     		movs	r0, #47
 360 0106 FFF7FEFF 		bl	LIS2DH12_spi_readWriteByte
 361              	.LVL27:
  66:hal/ic/LIS2DH12.c **** }
 362              		.loc 1 66 2 is_stmt 0 view .LVU103
 363              	.LBE16:
 364              	.LBE17:
  98:hal/ic/LIS2DH12.c **** 	LIS2DH12_spi_writeInt(LIS2DH12_CTRL_REG2, 0x19);			// filter for INT1 & data
 365              		.loc 1 98 2 is_stmt 1 view .LVU104
 366              	.LBB18:
 367              	.LBI18:
  63:hal/ic/LIS2DH12.c **** {
 368              		.loc 1 63 6 view .LVU105
 369              	.LBB19:
  65:hal/ic/LIS2DH12.c **** 	LIS2DH12_spi_readWriteByte(0xFF & (value>>0), true);
 370              		.loc 1 65 2 view .LVU106
 371 010a 0021     		movs	r1, #0
 372 010c 2120     		movs	r0, #33
 373 010e FFF7FEFF 		bl	LIS2DH12_spi_readWriteByte
 374              	.LVL28:
  66:hal/ic/LIS2DH12.c **** }
 375              		.loc 1 66 2 view .LVU107
 376 0112 0121     		movs	r1, #1
 377 0114 1920     		movs	r0, #25
 378 0116 FFF7FEFF 		bl	LIS2DH12_spi_readWriteByte
 379              	.LVL29:
  66:hal/ic/LIS2DH12.c **** }
 380              		.loc 1 66 2 is_stmt 0 view .LVU108
 381              	.LBE19:
 382              	.LBE18:
  99:hal/ic/LIS2DH12.c **** 	LIS2DH12_spi_writeInt(LIS2DH12_CTRL_REG3, 0x40);			// interrupt enabled
 383              		.loc 1 99 2 is_stmt 1 view .LVU109
 384              	.LBB20:
 385              	.LBI20:
  63:hal/ic/LIS2DH12.c **** {
 386              		.loc 1 63 6 view .LVU110
 387              	.LBB21:
  65:hal/ic/LIS2DH12.c **** 	LIS2DH12_spi_readWriteByte(0xFF & (value>>0), true);
 388              		.loc 1 65 2 view .LVU111
 389 011a 0021     		movs	r1, #0
 390 011c 2220     		movs	r0, #34
 391 011e FFF7FEFF 		bl	LIS2DH12_spi_readWriteByte
 392              	.LVL30:
  66:hal/ic/LIS2DH12.c **** }
 393              		.loc 1 66 2 view .LVU112
 394 0122 0121     		movs	r1, #1
 395 0124 4020     		movs	r0, #64
 396 0126 FFF7FEFF 		bl	LIS2DH12_spi_readWriteByte
 397              	.LVL31:
  66:hal/ic/LIS2DH12.c **** }
 398              		.loc 1 66 2 is_stmt 0 view .LVU113
 399              	.LBE21:
 400              	.LBE20:
 100:hal/ic/LIS2DH12.c **** 	LIS2DH12_spi_writeInt(LIS2DH12_INT1_CFG, 0x02);				// interrupt on X high
 401              		.loc 1 100 2 is_stmt 1 view .LVU114
 402              	.LBB22:
 403              	.LBI22:
  63:hal/ic/LIS2DH12.c **** {
 404              		.loc 1 63 6 view .LVU115
 405              	.LBB23:
  65:hal/ic/LIS2DH12.c **** 	LIS2DH12_spi_readWriteByte(0xFF & (value>>0), true);
 406              		.loc 1 65 2 view .LVU116
 407 012a 0021     		movs	r1, #0
 408 012c 3020     		movs	r0, #48
 409 012e FFF7FEFF 		bl	LIS2DH12_spi_readWriteByte
 410              	.LVL32:
  66:hal/ic/LIS2DH12.c **** }
 411              		.loc 1 66 2 view .LVU117
 412 0132 0121     		movs	r1, #1
 413 0134 0220     		movs	r0, #2
 414 0136 FFF7FEFF 		bl	LIS2DH12_spi_readWriteByte
 415              	.LVL33:
  66:hal/ic/LIS2DH12.c **** }
 416              		.loc 1 66 2 is_stmt 0 view .LVU118
 417              	.LBE23:
 418              	.LBE22:
 101:hal/ic/LIS2DH12.c **** 	LIS2DH12_spi_writeInt(LIS2DH12_INT1_THS, 0x05);				// threshold
 419              		.loc 1 101 2 is_stmt 1 view .LVU119
 420              	.LBB24:
 421              	.LBI24:
  63:hal/ic/LIS2DH12.c **** {
 422              		.loc 1 63 6 view .LVU120
 423              	.LBB25:
  65:hal/ic/LIS2DH12.c **** 	LIS2DH12_spi_readWriteByte(0xFF & (value>>0), true);
 424              		.loc 1 65 2 view .LVU121
 425 013a 0021     		movs	r1, #0
 426 013c 3220     		movs	r0, #50
 427 013e FFF7FEFF 		bl	LIS2DH12_spi_readWriteByte
 428              	.LVL34:
  66:hal/ic/LIS2DH12.c **** }
 429              		.loc 1 66 2 view .LVU122
 430 0142 0121     		movs	r1, #1
 431 0144 0520     		movs	r0, #5
 432 0146 FFF7FEFF 		bl	LIS2DH12_spi_readWriteByte
 433              	.LVL35:
  66:hal/ic/LIS2DH12.c **** }
 434              		.loc 1 66 2 is_stmt 0 view .LVU123
 435              	.LBE25:
 436              	.LBE24:
 102:hal/ic/LIS2DH12.c **** 	LIS2DH12_spi_writeInt(LIS2DH12_INT1_DURATION, 0x01);		// duration
 437              		.loc 1 102 2 is_stmt 1 view .LVU124
 438              	.LBB26:
 439              	.LBI26:
  63:hal/ic/LIS2DH12.c **** {
 440              		.loc 1 63 6 view .LVU125
 441              	.LBB27:
  65:hal/ic/LIS2DH12.c **** 	LIS2DH12_spi_readWriteByte(0xFF & (value>>0), true);
 442              		.loc 1 65 2 view .LVU126
 443 014a 0021     		movs	r1, #0
 444 014c 3320     		movs	r0, #51
 445 014e FFF7FEFF 		bl	LIS2DH12_spi_readWriteByte
 446              	.LVL36:
  66:hal/ic/LIS2DH12.c **** }
 447              		.loc 1 66 2 view .LVU127
 448              	.LBE27:
 449              	.LBE26:
 103:hal/ic/LIS2DH12.c **** }
 450              		.loc 1 103 1 is_stmt 0 view .LVU128
 451 0152 BDE80840 		pop	{r3, lr}
 452              	.LCFI8:
 453              		.cfi_restore 14
 454              		.cfi_restore 3
 455              		.cfi_def_cfa_offset 0
 456              	.LBB29:
 457              	.LBB28:
  66:hal/ic/LIS2DH12.c **** }
 458              		.loc 1 66 2 view .LVU129
 459 0156 0121     		movs	r1, #1
 460 0158 0846     		mov	r0, r1
 461 015a FFF7FEBF 		b	LIS2DH12_spi_readWriteByte
 462              	.LVL37:
 463              	.LBE28:
 464              	.LBE29:
 465              		.cfi_endproc
 466              	.LFE5:
 468              		.align	1
 469 015e 00BF     		.p2align 2,,3
 470              		.global	LI2DH12_init
 471              		.syntax unified
 472              		.thumb
 473              		.thumb_func
 475              	LI2DH12_init:
 476              	.LFB4:
  77:hal/ic/LIS2DH12.c **** 	LIS2DH12_spi_writeInt(LIS2DH12_CTRL_REG0, 0x90);			// pull down on SDO
 477              		.loc 1 77 1 is_stmt 1 view -0
 478              		.cfi_startproc
 479              		@ args = 0, pretend = 0, frame = 0
 480              		@ frame_needed = 0, uses_anonymous_args = 0
  78:hal/ic/LIS2DH12.c **** 
 481              		.loc 1 78 2 view .LVU131
 482              	.LVL38:
 483              	.LBB50:
 484              	.LBI50:
  63:hal/ic/LIS2DH12.c **** {
 485              		.loc 1 63 6 view .LVU132
 486              	.LBB51:
  65:hal/ic/LIS2DH12.c **** 	LIS2DH12_spi_readWriteByte(0xFF & (value>>0), true);
 487              		.loc 1 65 2 view .LVU133
 488              	.LBE51:
 489              	.LBE50:
  77:hal/ic/LIS2DH12.c **** 	LIS2DH12_spi_writeInt(LIS2DH12_CTRL_REG0, 0x90);			// pull down on SDO
 490              		.loc 1 77 1 is_stmt 0 view .LVU134
 491 0160 08B5     		push	{r3, lr}
 492              	.LCFI9:
 493              		.cfi_def_cfa_offset 8
 494              		.cfi_offset 3, -8
 495              		.cfi_offset 14, -4
 496              	.LBB53:
 497              	.LBB52:
  65:hal/ic/LIS2DH12.c **** 	LIS2DH12_spi_readWriteByte(0xFF & (value>>0), true);
 498              		.loc 1 65 2 view .LVU135
 499 0162 0021     		movs	r1, #0
 500 0164 1E20     		movs	r0, #30
 501 0166 FFF7FEFF 		bl	LIS2DH12_spi_readWriteByte
 502              	.LVL39:
  66:hal/ic/LIS2DH12.c **** }
 503              		.loc 1 66 2 is_stmt 1 view .LVU136
 504 016a 0121     		movs	r1, #1
 505 016c 9020     		movs	r0, #144
 506 016e FFF7FEFF 		bl	LIS2DH12_spi_readWriteByte
 507              	.LVL40:
  66:hal/ic/LIS2DH12.c **** }
 508              		.loc 1 66 2 is_stmt 0 view .LVU137
 509              	.LBE52:
 510              	.LBE53:
  80:hal/ic/LIS2DH12.c **** 	{
 511              		.loc 1 80 2 is_stmt 1 view .LVU138
 512              	.LBB54:
 513              	.LBI54:
  69:hal/ic/LIS2DH12.c **** {
 514              		.loc 1 69 5 view .LVU139
 515              	.LBB55:
  71:hal/ic/LIS2DH12.c **** 	int value = LIS2DH12_spi_readWriteByte(0, true);
 516              		.loc 1 71 2 view .LVU140
 517 0172 0021     		movs	r1, #0
 518 0174 8F20     		movs	r0, #143
 519 0176 FFF7FEFF 		bl	LIS2DH12_spi_readWriteByte
 520              	.LVL41:
  72:hal/ic/LIS2DH12.c **** 	return value & 0xFF;
 521              		.loc 1 72 2 view .LVU141
  72:hal/ic/LIS2DH12.c **** 	return value & 0xFF;
 522              		.loc 1 72 14 is_stmt 0 view .LVU142
 523 017a 0121     		movs	r1, #1
 524 017c 0020     		movs	r0, #0
 525 017e FFF7FEFF 		bl	LIS2DH12_spi_readWriteByte
 526              	.LVL42:
  73:hal/ic/LIS2DH12.c **** }
 527              		.loc 1 73 2 is_stmt 1 view .LVU143
  73:hal/ic/LIS2DH12.c **** }
 528              		.loc 1 73 2 is_stmt 0 view .LVU144
 529              	.LBE55:
 530              	.LBE54:
  80:hal/ic/LIS2DH12.c **** 	{
 531              		.loc 1 80 5 view .LVU145
 532 0182 3328     		cmp	r0, #51
 533 0184 0BD0     		beq	.L30
 534              	.L28:
  90:hal/ic/LIS2DH12.c **** 
 535              		.loc 1 90 2 is_stmt 1 view .LVU146
 536              	.LVL43:
 537              	.LBB56:
 538              	.LBI56:
  63:hal/ic/LIS2DH12.c **** {
 539              		.loc 1 63 6 view .LVU147
 540              	.LBB57:
  65:hal/ic/LIS2DH12.c **** 	LIS2DH12_spi_readWriteByte(0xFF & (value>>0), true);
 541              		.loc 1 65 2 view .LVU148
 542 0186 0021     		movs	r1, #0
 543 0188 1E20     		movs	r0, #30
 544 018a FFF7FEFF 		bl	LIS2DH12_spi_readWriteByte
 545              	.LVL44:
  66:hal/ic/LIS2DH12.c **** }
 546              		.loc 1 66 2 view .LVU149
 547 018e 0121     		movs	r1, #1
 548 0190 9020     		movs	r0, #144
 549 0192 FFF7FEFF 		bl	LIS2DH12_spi_readWriteByte
 550              	.LVL45:
  66:hal/ic/LIS2DH12.c **** }
 551              		.loc 1 66 2 is_stmt 0 view .LVU150
 552              	.LBE57:
 553              	.LBE56:
  92:hal/ic/LIS2DH12.c **** }
 554              		.loc 1 92 2 is_stmt 1 view .LVU151
  93:hal/ic/LIS2DH12.c **** 
 555              		.loc 1 93 1 is_stmt 0 view .LVU152
 556 0196 BDE80840 		pop	{r3, lr}
 557              	.LCFI10:
 558              		.cfi_remember_state
 559              		.cfi_restore 14
 560              		.cfi_restore 3
 561              		.cfi_def_cfa_offset 0
  92:hal/ic/LIS2DH12.c **** }
 562              		.loc 1 92 2 view .LVU153
 563 019a FFF7FEBF 		b	LIS2DH12_interrupt
 564              	.LVL46:
 565              	.L30:
 566              	.LCFI11:
 567              		.cfi_restore_state
  82:hal/ic/LIS2DH12.c **** 		LIS2DH12_spi_writeInt(LIS2DH12_CTRL_REG1, 0x2F);		// 10Hz; low power mode; XYZ enabled
 568              		.loc 1 82 3 is_stmt 1 view .LVU154
 569              	.LBB58:
 570              	.LBI58:
  63:hal/ic/LIS2DH12.c **** {
 571              		.loc 1 63 6 view .LVU155
 572              	.LBB59:
  65:hal/ic/LIS2DH12.c **** 	LIS2DH12_spi_readWriteByte(0xFF & (value>>0), true);
 573              		.loc 1 65 2 view .LVU156
 574 019e 0021     		movs	r1, #0
 575 01a0 1F20     		movs	r0, #31
 576 01a2 FFF7FEFF 		bl	LIS2DH12_spi_readWriteByte
 577              	.LVL47:
  66:hal/ic/LIS2DH12.c **** }
 578              		.loc 1 66 2 view .LVU157
 579 01a6 0121     		movs	r1, #1
 580 01a8 C020     		movs	r0, #192
 581 01aa FFF7FEFF 		bl	LIS2DH12_spi_readWriteByte
 582              	.LVL48:
  66:hal/ic/LIS2DH12.c **** }
 583              		.loc 1 66 2 is_stmt 0 view .LVU158
 584              	.LBE59:
 585              	.LBE58:
  83:hal/ic/LIS2DH12.c **** 		LIS2DH12_spi_writeInt(LIS2DH12_CTRL_REG2, 0x0);			// filter disabled
 586              		.loc 1 83 3 is_stmt 1 view .LVU159
 587              	.LBB60:
 588              	.LBI60:
  63:hal/ic/LIS2DH12.c **** {
 589              		.loc 1 63 6 view .LVU160
 590              	.LBB61:
  65:hal/ic/LIS2DH12.c **** 	LIS2DH12_spi_readWriteByte(0xFF & (value>>0), true);
 591              		.loc 1 65 2 view .LVU161
 592 01ae 0021     		movs	r1, #0
 593 01b0 2020     		movs	r0, #32
 594 01b2 FFF7FEFF 		bl	LIS2DH12_spi_readWriteByte
 595              	.LVL49:
  66:hal/ic/LIS2DH12.c **** }
 596              		.loc 1 66 2 view .LVU162
 597 01b6 0121     		movs	r1, #1
 598 01b8 2F20     		movs	r0, #47
 599 01ba FFF7FEFF 		bl	LIS2DH12_spi_readWriteByte
 600              	.LVL50:
  66:hal/ic/LIS2DH12.c **** }
 601              		.loc 1 66 2 is_stmt 0 view .LVU163
 602              	.LBE61:
 603              	.LBE60:
  84:hal/ic/LIS2DH12.c **** 		LIS2DH12_spi_writeInt(LIS2DH12_CTRL_REG3, 0x0);			// interrupts disabled
 604              		.loc 1 84 3 is_stmt 1 view .LVU164
 605              	.LBB62:
 606              	.LBI62:
  63:hal/ic/LIS2DH12.c **** {
 607              		.loc 1 63 6 view .LVU165
 608              	.LBB63:
  65:hal/ic/LIS2DH12.c **** 	LIS2DH12_spi_readWriteByte(0xFF & (value>>0), true);
 609              		.loc 1 65 2 view .LVU166
 610 01be 0021     		movs	r1, #0
 611 01c0 2120     		movs	r0, #33
 612 01c2 FFF7FEFF 		bl	LIS2DH12_spi_readWriteByte
 613              	.LVL51:
  66:hal/ic/LIS2DH12.c **** }
 614              		.loc 1 66 2 view .LVU167
 615 01c6 0121     		movs	r1, #1
 616 01c8 0020     		movs	r0, #0
 617 01ca FFF7FEFF 		bl	LIS2DH12_spi_readWriteByte
 618              	.LVL52:
  66:hal/ic/LIS2DH12.c **** }
 619              		.loc 1 66 2 is_stmt 0 view .LVU168
 620              	.LBE63:
 621              	.LBE62:
  85:hal/ic/LIS2DH12.c **** 		LIS2DH12_spi_writeInt(LIS2DH12_CTRL_REG4, 0x0);			// +- 2.0g enabled; 4-wire SPI enabled
 622              		.loc 1 85 3 is_stmt 1 view .LVU169
 623              	.LBB64:
 624              	.LBI64:
  63:hal/ic/LIS2DH12.c **** {
 625              		.loc 1 63 6 view .LVU170
 626              	.LBB65:
  65:hal/ic/LIS2DH12.c **** 	LIS2DH12_spi_readWriteByte(0xFF & (value>>0), true);
 627              		.loc 1 65 2 view .LVU171
 628 01ce 0021     		movs	r1, #0
 629 01d0 2220     		movs	r0, #34
 630 01d2 FFF7FEFF 		bl	LIS2DH12_spi_readWriteByte
 631              	.LVL53:
  66:hal/ic/LIS2DH12.c **** }
 632              		.loc 1 66 2 view .LVU172
 633 01d6 0121     		movs	r1, #1
 634 01d8 0020     		movs	r0, #0
 635 01da FFF7FEFF 		bl	LIS2DH12_spi_readWriteByte
 636              	.LVL54:
  66:hal/ic/LIS2DH12.c **** }
 637              		.loc 1 66 2 is_stmt 0 view .LVU173
 638              	.LBE65:
 639              	.LBE64:
  86:hal/ic/LIS2DH12.c **** 		LIS2DH12_spi_writeInt(LIS2DH12_CTRL_REG5, 0x0);
 640              		.loc 1 86 3 is_stmt 1 view .LVU174
 641              	.LBB66:
 642              	.LBI66:
  63:hal/ic/LIS2DH12.c **** {
 643              		.loc 1 63 6 view .LVU175
 644              	.LBB67:
  65:hal/ic/LIS2DH12.c **** 	LIS2DH12_spi_readWriteByte(0xFF & (value>>0), true);
 645              		.loc 1 65 2 view .LVU176
 646 01de 0021     		movs	r1, #0
 647 01e0 2320     		movs	r0, #35
 648 01e2 FFF7FEFF 		bl	LIS2DH12_spi_readWriteByte
 649              	.LVL55:
  66:hal/ic/LIS2DH12.c **** }
 650              		.loc 1 66 2 view .LVU177
 651 01e6 0121     		movs	r1, #1
 652 01e8 0020     		movs	r0, #0
 653 01ea FFF7FEFF 		bl	LIS2DH12_spi_readWriteByte
 654              	.LVL56:
  66:hal/ic/LIS2DH12.c **** }
 655              		.loc 1 66 2 is_stmt 0 view .LVU178
 656              	.LBE67:
 657              	.LBE66:
  87:hal/ic/LIS2DH12.c **** 		LIS2DH12_spi_writeInt(LIS2DH12_CTRL_REG6, 0x0);
 658              		.loc 1 87 3 is_stmt 1 view .LVU179
 659              	.LBB68:
 660              	.LBI68:
  63:hal/ic/LIS2DH12.c **** {
 661              		.loc 1 63 6 view .LVU180
 662              	.LBB69:
  65:hal/ic/LIS2DH12.c **** 	LIS2DH12_spi_readWriteByte(0xFF & (value>>0), true);
 663              		.loc 1 65 2 view .LVU181
 664 01ee 0021     		movs	r1, #0
 665 01f0 2420     		movs	r0, #36
 666 01f2 FFF7FEFF 		bl	LIS2DH12_spi_readWriteByte
 667              	.LVL57:
  66:hal/ic/LIS2DH12.c **** }
 668              		.loc 1 66 2 view .LVU182
 669 01f6 0121     		movs	r1, #1
 670 01f8 0020     		movs	r0, #0
 671 01fa FFF7FEFF 		bl	LIS2DH12_spi_readWriteByte
 672              	.LVL58:
  66:hal/ic/LIS2DH12.c **** }
 673              		.loc 1 66 2 is_stmt 0 view .LVU183
 674              	.LBE69:
 675              	.LBE68:
  88:hal/ic/LIS2DH12.c **** 	}
 676              		.loc 1 88 3 is_stmt 1 view .LVU184
 677              	.LBB70:
 678              	.LBI70:
  63:hal/ic/LIS2DH12.c **** {
 679              		.loc 1 63 6 view .LVU185
 680              	.LBB71:
  65:hal/ic/LIS2DH12.c **** 	LIS2DH12_spi_readWriteByte(0xFF & (value>>0), true);
 681              		.loc 1 65 2 view .LVU186
 682 01fe 0021     		movs	r1, #0
 683 0200 2520     		movs	r0, #37
 684 0202 FFF7FEFF 		bl	LIS2DH12_spi_readWriteByte
 685              	.LVL59:
  66:hal/ic/LIS2DH12.c **** }
 686              		.loc 1 66 2 view .LVU187
 687 0206 0121     		movs	r1, #1
 688 0208 0020     		movs	r0, #0
 689 020a FFF7FEFF 		bl	LIS2DH12_spi_readWriteByte
 690              	.LVL60:
  67:hal/ic/LIS2DH12.c **** 
 691              		.loc 1 67 1 is_stmt 0 view .LVU188
 692 020e BAE7     		b	.L28
 693              	.LBE71:
 694              	.LBE70:
 695              		.cfi_endproc
 696              	.LFE4:
 698              	.Letext0:
 699              		.file 2 "c:\\program files (x86)\\gnu arm embedded toolchain\\10 2021.10\\arm-none-eabi\\include\\
 700              		.file 3 "c:\\program files (x86)\\gnu arm embedded toolchain\\10 2021.10\\arm-none-eabi\\include\\
 701              		.file 4 "hal/ic/../../TMC-API/tmc/helpers/Types.h"
 702              		.file 5 "./cpu/STM32F103/stm32f10x_type.h"
 703              		.file 6 "./cpu/STM32F103/stm32f10x_map.h"
 704              		.file 7 "./cpu/STM32F103/stm32f10x_gpio.h"
 705              		.file 8 "./cpu/STM32F103/stm32f10x_spi.h"
 706              		.file 9 "hal/ic/../../Definitions.h"
 707              		.file 10 "./cpu/STM32F103/stm32f10x_rcc.h"