   1              		.cpu cortex-m3
   2              		.arch armv7-m
   3              		.fpu softvfp
   4              		.eabi_attribute 20, 1
   5              		.eabi_attribute 21, 1
   6              		.eabi_attribute 23, 3
   7              		.eabi_attribute 24, 1
   8              		.eabi_attribute 25, 1
   9              		.eabi_attribute 26, 1
  10              		.eabi_attribute 30, 2
  11              		.eabi_attribute 34, 1
  12              		.eabi_attribute 18, 4
  13              		.file	"stm32f10x_tim.c"
  14              		.text
  15              	.Ltext0:
  16              		.cfi_sections	.debug_frame
  17              		.align	1
  18              		.p2align 2,,3
  19              		.global	TIM_DeInit
  20              		.syntax unified
  21              		.thumb
  22              		.thumb_func
  24              	TIM_DeInit:
  25              	.LVL0:
  26              	.LFB0:
  27              		.file 1 "cpu/STM32F103/stm32f10x_tim.c"
   1:cpu/STM32F103/stm32f10x_tim.c **** /******************** (C) COPYRIGHT 2009 STMicroelectronics ********************
   2:cpu/STM32F103/stm32f10x_tim.c **** * File Name          : stm32f10x_tim.c
   3:cpu/STM32F103/stm32f10x_tim.c **** * Author             : MCD Application Team
   4:cpu/STM32F103/stm32f10x_tim.c **** * Version            : V2.0.3Patch1
   5:cpu/STM32F103/stm32f10x_tim.c **** * Date               : 04/06/2009
   6:cpu/STM32F103/stm32f10x_tim.c **** * Description        : This file provides all the TIM firmware functions.
   7:cpu/STM32F103/stm32f10x_tim.c **** ********************************************************************************
   8:cpu/STM32F103/stm32f10x_tim.c **** * THE PRESENT FIRMWARE WHICH IS FOR GUIDANCE ONLY AIMS AT PROVIDING CUSTOMERS
   9:cpu/STM32F103/stm32f10x_tim.c **** * WITH CODING INFORMATION REGARDING THEIR PRODUCTS IN ORDER FOR THEM TO SAVE TIME.
  10:cpu/STM32F103/stm32f10x_tim.c **** * AS A RESULT, STMICROELECTRONICS SHALL NOT BE HELD LIABLE FOR ANY DIRECT,
  11:cpu/STM32F103/stm32f10x_tim.c **** * INDIRECT OR CONSEQUENTIAL DAMAGES WITH RESPECT TO ANY CLAIMS ARISING FROM THE
  12:cpu/STM32F103/stm32f10x_tim.c **** * CONTENT OF SUCH FIRMWARE AND/OR THE USE MADE BY CUSTOMERS OF THE CODING
  13:cpu/STM32F103/stm32f10x_tim.c **** * INFORMATION CONTAINED HEREIN IN CONNECTION WITH THEIR PRODUCTS.
  14:cpu/STM32F103/stm32f10x_tim.c **** *******************************************************************************/
  15:cpu/STM32F103/stm32f10x_tim.c **** 
  16:cpu/STM32F103/stm32f10x_tim.c **** /* Includes ------------------------------------------------------------------*/
  17:cpu/STM32F103/stm32f10x_tim.c **** #include "stm32f10x_tim.h"
  18:cpu/STM32F103/stm32f10x_tim.c **** #include "stm32f10x_rcc.h"
  19:cpu/STM32F103/stm32f10x_tim.c **** 
  20:cpu/STM32F103/stm32f10x_tim.c **** /* Private typedef -----------------------------------------------------------*/
  21:cpu/STM32F103/stm32f10x_tim.c **** /* Private define ------------------------------------------------------------*/
  22:cpu/STM32F103/stm32f10x_tim.c **** /* ---------------------- TIM registers bit mask ------------------------ */
  23:cpu/STM32F103/stm32f10x_tim.c **** #define CR1_CEN_Set                 ((u16)0x0001)
  24:cpu/STM32F103/stm32f10x_tim.c **** #define CR1_CEN_Reset               ((u16)0x03FE)
  25:cpu/STM32F103/stm32f10x_tim.c **** #define CR1_UDIS_Set                ((u16)0x0002)
  26:cpu/STM32F103/stm32f10x_tim.c **** #define CR1_UDIS_Reset              ((u16)0x03FD)
  27:cpu/STM32F103/stm32f10x_tim.c **** #define CR1_URS_Set                 ((u16)0x0004)
  28:cpu/STM32F103/stm32f10x_tim.c **** #define CR1_URS_Reset               ((u16)0x03FB)
  29:cpu/STM32F103/stm32f10x_tim.c **** #define CR1_OPM_Reset               ((u16)0x03F7)
  30:cpu/STM32F103/stm32f10x_tim.c **** #define CR1_CounterMode_Mask        ((u16)0x038F)
  31:cpu/STM32F103/stm32f10x_tim.c **** #define CR1_ARPE_Set                ((u16)0x0080)
  32:cpu/STM32F103/stm32f10x_tim.c **** #define CR1_ARPE_Reset              ((u16)0x037F)
  33:cpu/STM32F103/stm32f10x_tim.c **** #define CR1_CKD_Mask                ((u16)0x00FF)
  34:cpu/STM32F103/stm32f10x_tim.c **** 
  35:cpu/STM32F103/stm32f10x_tim.c **** #define CR2_CCPC_Set                ((u16)0x0001)
  36:cpu/STM32F103/stm32f10x_tim.c **** #define CR2_CCPC_Reset              ((u16)0xFFFE)
  37:cpu/STM32F103/stm32f10x_tim.c **** #define CR2_CCUS_Set                ((u16)0x0004)
  38:cpu/STM32F103/stm32f10x_tim.c **** #define CR2_CCUS_Reset              ((u16)0xFFFB)
  39:cpu/STM32F103/stm32f10x_tim.c **** #define CR2_CCDS_Set                ((u16)0x0008)
  40:cpu/STM32F103/stm32f10x_tim.c **** #define CR2_CCDS_Reset              ((u16)0xFFF7)
  41:cpu/STM32F103/stm32f10x_tim.c **** #define CR2_MMS_Mask                ((u16)0xFF8F)
  42:cpu/STM32F103/stm32f10x_tim.c **** #define CR2_TI1S_Set                ((u16)0x0080)
  43:cpu/STM32F103/stm32f10x_tim.c **** #define CR2_TI1S_Reset              ((u16)0xFF7F)
  44:cpu/STM32F103/stm32f10x_tim.c **** #define CR2_OIS1_Reset              ((u16)0x7EFF)
  45:cpu/STM32F103/stm32f10x_tim.c **** #define CR2_OIS1N_Reset             ((u16)0x7DFF)
  46:cpu/STM32F103/stm32f10x_tim.c **** #define CR2_OIS2_Reset              ((u16)0x7BFF)
  47:cpu/STM32F103/stm32f10x_tim.c **** #define CR2_OIS2N_Reset             ((u16)0x77FF)
  48:cpu/STM32F103/stm32f10x_tim.c **** #define CR2_OIS3_Reset              ((u16)0x6FFF)
  49:cpu/STM32F103/stm32f10x_tim.c **** #define CR2_OIS3N_Reset             ((u16)0x5FFF)
  50:cpu/STM32F103/stm32f10x_tim.c **** #define CR2_OIS4_Reset              ((u16)0x3FFF)
  51:cpu/STM32F103/stm32f10x_tim.c **** 
  52:cpu/STM32F103/stm32f10x_tim.c **** #define SMCR_SMS_Mask               ((u16)0xFFF8)
  53:cpu/STM32F103/stm32f10x_tim.c **** #define SMCR_ETR_Mask               ((u16)0x00FF)
  54:cpu/STM32F103/stm32f10x_tim.c **** #define SMCR_TS_Mask                ((u16)0xFF8F)
  55:cpu/STM32F103/stm32f10x_tim.c **** #define SMCR_MSM_Reset              ((u16)0xFF7F)
  56:cpu/STM32F103/stm32f10x_tim.c **** #define SMCR_ECE_Set                ((u16)0x4000)
  57:cpu/STM32F103/stm32f10x_tim.c **** 
  58:cpu/STM32F103/stm32f10x_tim.c **** #define CCMR_CC13S_Mask             ((u16)0xFFFC)
  59:cpu/STM32F103/stm32f10x_tim.c **** #define CCMR_CC24S_Mask             ((u16)0xFCFF)
  60:cpu/STM32F103/stm32f10x_tim.c **** #define CCMR_TI13Direct_Set         ((u16)0x0001)
  61:cpu/STM32F103/stm32f10x_tim.c **** #define CCMR_TI24Direct_Set         ((u16)0x0100)
  62:cpu/STM32F103/stm32f10x_tim.c **** #define CCMR_OC13FE_Reset           ((u16)0xFFFB)
  63:cpu/STM32F103/stm32f10x_tim.c **** #define CCMR_OC24FE_Reset           ((u16)0xFBFF)
  64:cpu/STM32F103/stm32f10x_tim.c **** #define CCMR_OC13PE_Reset           ((u16)0xFFF7)
  65:cpu/STM32F103/stm32f10x_tim.c **** #define CCMR_OC24PE_Reset           ((u16)0xF7FF)
  66:cpu/STM32F103/stm32f10x_tim.c **** #define CCMR_OC13M_Mask             ((u16)0xFF8F)
  67:cpu/STM32F103/stm32f10x_tim.c **** #define CCMR_OC24M_Mask             ((u16)0x8FFF) 
  68:cpu/STM32F103/stm32f10x_tim.c **** 
  69:cpu/STM32F103/stm32f10x_tim.c **** #define CCMR_OC13CE_Reset           ((u16)0xFF7F)
  70:cpu/STM32F103/stm32f10x_tim.c **** #define CCMR_OC24CE_Reset           ((u16)0x7FFF)
  71:cpu/STM32F103/stm32f10x_tim.c **** 
  72:cpu/STM32F103/stm32f10x_tim.c **** #define CCMR_IC13PSC_Mask           ((u16)0xFFF3)
  73:cpu/STM32F103/stm32f10x_tim.c **** #define CCMR_IC24PSC_Mask           ((u16)0xF3FF)
  74:cpu/STM32F103/stm32f10x_tim.c **** #define CCMR_IC13F_Mask             ((u16)0xFF0F)
  75:cpu/STM32F103/stm32f10x_tim.c **** #define CCMR_IC24F_Mask             ((u16)0x0FFF)
  76:cpu/STM32F103/stm32f10x_tim.c **** 
  77:cpu/STM32F103/stm32f10x_tim.c **** #define CCMR_Offset                 ((u16)0x0018)
  78:cpu/STM32F103/stm32f10x_tim.c **** #define CCER_CCE_Set                ((u16)0x0001)
  79:cpu/STM32F103/stm32f10x_tim.c **** #define	CCER_CCNE_Set               ((u16)0x0004)
  80:cpu/STM32F103/stm32f10x_tim.c **** 
  81:cpu/STM32F103/stm32f10x_tim.c **** #define CCER_CC1P_Reset             ((u16)0xFFFD)
  82:cpu/STM32F103/stm32f10x_tim.c **** #define CCER_CC2P_Reset             ((u16)0xFFDF)
  83:cpu/STM32F103/stm32f10x_tim.c **** #define CCER_CC3P_Reset             ((u16)0xFDFF)
  84:cpu/STM32F103/stm32f10x_tim.c **** #define CCER_CC4P_Reset             ((u16)0xDFFF)
  85:cpu/STM32F103/stm32f10x_tim.c **** 
  86:cpu/STM32F103/stm32f10x_tim.c **** #define CCER_CC1NP_Reset            ((u16)0xFFF7)
  87:cpu/STM32F103/stm32f10x_tim.c **** #define CCER_CC2NP_Reset            ((u16)0xFF7F)
  88:cpu/STM32F103/stm32f10x_tim.c **** #define CCER_CC3NP_Reset            ((u16)0xF7FF)
  89:cpu/STM32F103/stm32f10x_tim.c **** 
  90:cpu/STM32F103/stm32f10x_tim.c **** #define CCER_CC1E_Set               ((u16)0x0001)
  91:cpu/STM32F103/stm32f10x_tim.c **** #define CCER_CC1E_Reset             ((u16)0xFFFE)
  92:cpu/STM32F103/stm32f10x_tim.c **** 
  93:cpu/STM32F103/stm32f10x_tim.c **** #define CCER_CC1NE_Reset            ((u16)0xFFFB)
  94:cpu/STM32F103/stm32f10x_tim.c **** 
  95:cpu/STM32F103/stm32f10x_tim.c **** #define CCER_CC2E_Set               ((u16)0x0010)
  96:cpu/STM32F103/stm32f10x_tim.c **** #define CCER_CC2E_Reset             ((u16)0xFFEF)
  97:cpu/STM32F103/stm32f10x_tim.c **** 
  98:cpu/STM32F103/stm32f10x_tim.c **** #define CCER_CC2NE_Reset            ((u16)0xFFBF)
  99:cpu/STM32F103/stm32f10x_tim.c **** 
 100:cpu/STM32F103/stm32f10x_tim.c **** #define CCER_CC3E_Set               ((u16)0x0100)
 101:cpu/STM32F103/stm32f10x_tim.c **** #define CCER_CC3E_Reset             ((u16)0xFEFF)
 102:cpu/STM32F103/stm32f10x_tim.c **** 
 103:cpu/STM32F103/stm32f10x_tim.c **** #define CCER_CC3NE_Reset            ((u16)0xFBFF)
 104:cpu/STM32F103/stm32f10x_tim.c **** 
 105:cpu/STM32F103/stm32f10x_tim.c **** #define CCER_CC4E_Set               ((u16)0x1000)
 106:cpu/STM32F103/stm32f10x_tim.c **** #define CCER_CC4E_Reset             ((u16)0xEFFF)
 107:cpu/STM32F103/stm32f10x_tim.c **** 
 108:cpu/STM32F103/stm32f10x_tim.c **** #define BDTR_MOE_Set                ((u16)0x8000)
 109:cpu/STM32F103/stm32f10x_tim.c **** #define BDTR_MOE_Reset              ((u16)0x7FFF)
 110:cpu/STM32F103/stm32f10x_tim.c **** 
 111:cpu/STM32F103/stm32f10x_tim.c **** /* Private macro -------------------------------------------------------------*/
 112:cpu/STM32F103/stm32f10x_tim.c **** /* Private variables ---------------------------------------------------------*/
 113:cpu/STM32F103/stm32f10x_tim.c **** /* Private function prototypes -----------------------------------------------*/
 114:cpu/STM32F103/stm32f10x_tim.c **** static void TI1_Config(TIM_TypeDef* TIMx, u16 TIM_ICPolarity, u16 TIM_ICSelection,
 115:cpu/STM32F103/stm32f10x_tim.c ****                        u16 TIM_ICFilter);
 116:cpu/STM32F103/stm32f10x_tim.c **** static void TI2_Config(TIM_TypeDef* TIMx, u16 TIM_ICPolarity, u16 TIM_ICSelection,
 117:cpu/STM32F103/stm32f10x_tim.c ****                        u16 TIM_ICFilter);
 118:cpu/STM32F103/stm32f10x_tim.c **** static void TI3_Config(TIM_TypeDef* TIMx, u16 TIM_ICPolarity, u16 TIM_ICSelection,
 119:cpu/STM32F103/stm32f10x_tim.c ****                        u16 TIM_ICFilter);
 120:cpu/STM32F103/stm32f10x_tim.c **** static void TI4_Config(TIM_TypeDef* TIMx, u16 TIM_ICPolarity, u16 TIM_ICSelection,
 121:cpu/STM32F103/stm32f10x_tim.c ****                        u16 TIM_ICFilter);
 122:cpu/STM32F103/stm32f10x_tim.c **** /* Private macro -------------------------------------------------------------*/
 123:cpu/STM32F103/stm32f10x_tim.c **** /* Private variables ---------------------------------------------------------*/
 124:cpu/STM32F103/stm32f10x_tim.c **** /* Private function prototypes -----------------------------------------------*/
 125:cpu/STM32F103/stm32f10x_tim.c **** /* Private functions ---------------------------------------------------------*/
 126:cpu/STM32F103/stm32f10x_tim.c **** /*******************************************************************************
 127:cpu/STM32F103/stm32f10x_tim.c **** * Function Name  : TIM_DeInit
 128:cpu/STM32F103/stm32f10x_tim.c **** * Description    : Deinitializes the TIMx peripheral registers to their default
 129:cpu/STM32F103/stm32f10x_tim.c **** *                  reset values.
 130:cpu/STM32F103/stm32f10x_tim.c **** * Input          : - TIMx: where x can be 1 to 8 to select the TIM peripheral.
 131:cpu/STM32F103/stm32f10x_tim.c **** * Output         : None
 132:cpu/STM32F103/stm32f10x_tim.c **** * Return         : None
 133:cpu/STM32F103/stm32f10x_tim.c **** *******************************************************************************/
 134:cpu/STM32F103/stm32f10x_tim.c **** void TIM_DeInit(TIM_TypeDef* TIMx)
 135:cpu/STM32F103/stm32f10x_tim.c **** {
  28              		.loc 1 135 1 view -0
  29              		.cfi_startproc
  30              		@ args = 0, pretend = 0, frame = 0
  31              		@ frame_needed = 0, uses_anonymous_args = 0
 136:cpu/STM32F103/stm32f10x_tim.c ****   /* Check the parameters */
 137:cpu/STM32F103/stm32f10x_tim.c ****   assert_param(IS_TIM_ALL_PERIPH(TIMx)); 
  32              		.loc 1 137 3 view .LVU1
 138:cpu/STM32F103/stm32f10x_tim.c ****  
 139:cpu/STM32F103/stm32f10x_tim.c ****   switch (*(u32*)&TIMx)
  33              		.loc 1 139 3 view .LVU2
 135:cpu/STM32F103/stm32f10x_tim.c ****   /* Check the parameters */
  34              		.loc 1 135 1 is_stmt 0 view .LVU3
  35 0000 08B5     		push	{r3, lr}
  36              	.LCFI0:
  37              		.cfi_def_cfa_offset 8
  38              		.cfi_offset 3, -8
  39              		.cfi_offset 14, -4
  40              		.loc 1 139 3 view .LVU4
  41 0002 394B     		ldr	r3, .L17
  42 0004 9842     		cmp	r0, r3
  43 0006 44D0     		beq	.L2
  44 0008 11D8     		bhi	.L3
  45 000a A3F50063 		sub	r3, r3, #2048
  46 000e 9842     		cmp	r0, r3
  47 0010 49D0     		beq	.L4
  48 0012 1FD9     		bls	.L15
  49 0014 354B     		ldr	r3, .L17+4
  50 0016 9842     		cmp	r0, r3
  51 0018 4FD1     		bne	.L1
 140:cpu/STM32F103/stm32f10x_tim.c ****   {
 141:cpu/STM32F103/stm32f10x_tim.c ****     case TIM1_BASE:
 142:cpu/STM32F103/stm32f10x_tim.c ****       RCC_APB2PeriphResetCmd(RCC_APB2Periph_TIM1, ENABLE);
 143:cpu/STM32F103/stm32f10x_tim.c ****       RCC_APB2PeriphResetCmd(RCC_APB2Periph_TIM1, DISABLE);  
 144:cpu/STM32F103/stm32f10x_tim.c ****       break; 
 145:cpu/STM32F103/stm32f10x_tim.c ****       
 146:cpu/STM32F103/stm32f10x_tim.c ****     case TIM2_BASE:
 147:cpu/STM32F103/stm32f10x_tim.c ****       RCC_APB1PeriphResetCmd(RCC_APB1Periph_TIM2, ENABLE);
 148:cpu/STM32F103/stm32f10x_tim.c ****       RCC_APB1PeriphResetCmd(RCC_APB1Periph_TIM2, DISABLE);
 149:cpu/STM32F103/stm32f10x_tim.c ****       break;
 150:cpu/STM32F103/stm32f10x_tim.c ****  
 151:cpu/STM32F103/stm32f10x_tim.c ****     case TIM3_BASE:
 152:cpu/STM32F103/stm32f10x_tim.c ****       RCC_APB1PeriphResetCmd(RCC_APB1Periph_TIM3, ENABLE);
 153:cpu/STM32F103/stm32f10x_tim.c ****       RCC_APB1PeriphResetCmd(RCC_APB1Periph_TIM3, DISABLE);
 154:cpu/STM32F103/stm32f10x_tim.c ****       break;
 155:cpu/STM32F103/stm32f10x_tim.c ****  
 156:cpu/STM32F103/stm32f10x_tim.c ****     case TIM4_BASE:
 157:cpu/STM32F103/stm32f10x_tim.c ****       RCC_APB1PeriphResetCmd(RCC_APB1Periph_TIM4, ENABLE);
 158:cpu/STM32F103/stm32f10x_tim.c ****       RCC_APB1PeriphResetCmd(RCC_APB1Periph_TIM4, DISABLE);
 159:cpu/STM32F103/stm32f10x_tim.c ****       break;
 160:cpu/STM32F103/stm32f10x_tim.c ****       
 161:cpu/STM32F103/stm32f10x_tim.c ****     case TIM5_BASE:
 162:cpu/STM32F103/stm32f10x_tim.c ****       RCC_APB1PeriphResetCmd(RCC_APB1Periph_TIM5, ENABLE);
  52              		.loc 1 162 7 is_stmt 1 view .LVU5
  53 001a 0121     		movs	r1, #1
  54 001c 0820     		movs	r0, #8
  55              	.LVL1:
  56              		.loc 1 162 7 is_stmt 0 view .LVU6
  57 001e FFF7FEFF 		bl	RCC_APB1PeriphResetCmd
  58              	.LVL2:
 163:cpu/STM32F103/stm32f10x_tim.c ****       RCC_APB1PeriphResetCmd(RCC_APB1Periph_TIM5, DISABLE);
  59              		.loc 1 163 7 is_stmt 1 view .LVU7
 164:cpu/STM32F103/stm32f10x_tim.c ****       break;
 165:cpu/STM32F103/stm32f10x_tim.c ****       
 166:cpu/STM32F103/stm32f10x_tim.c ****     case TIM6_BASE:
 167:cpu/STM32F103/stm32f10x_tim.c ****       RCC_APB1PeriphResetCmd(RCC_APB1Periph_TIM6, ENABLE);
 168:cpu/STM32F103/stm32f10x_tim.c ****       RCC_APB1PeriphResetCmd(RCC_APB1Periph_TIM6, DISABLE);
 169:cpu/STM32F103/stm32f10x_tim.c ****       break;
 170:cpu/STM32F103/stm32f10x_tim.c ****       
 171:cpu/STM32F103/stm32f10x_tim.c ****     case TIM7_BASE:
 172:cpu/STM32F103/stm32f10x_tim.c ****       RCC_APB1PeriphResetCmd(RCC_APB1Periph_TIM7, ENABLE);
 173:cpu/STM32F103/stm32f10x_tim.c ****       RCC_APB1PeriphResetCmd(RCC_APB1Periph_TIM7, DISABLE);
 174:cpu/STM32F103/stm32f10x_tim.c ****       break;
 175:cpu/STM32F103/stm32f10x_tim.c ****       
 176:cpu/STM32F103/stm32f10x_tim.c ****     case TIM8_BASE:
 177:cpu/STM32F103/stm32f10x_tim.c ****       RCC_APB2PeriphResetCmd(RCC_APB2Periph_TIM8, ENABLE);
 178:cpu/STM32F103/stm32f10x_tim.c ****       RCC_APB2PeriphResetCmd(RCC_APB2Periph_TIM8, DISABLE);  
 179:cpu/STM32F103/stm32f10x_tim.c ****       break; 
 180:cpu/STM32F103/stm32f10x_tim.c ****       
 181:cpu/STM32F103/stm32f10x_tim.c ****     default:
 182:cpu/STM32F103/stm32f10x_tim.c ****       break;
 183:cpu/STM32F103/stm32f10x_tim.c ****   }
 184:cpu/STM32F103/stm32f10x_tim.c **** }
  60              		.loc 1 184 1 is_stmt 0 view .LVU8
  61 0022 BDE80840 		pop	{r3, lr}
  62              	.LCFI1:
  63              		.cfi_remember_state
  64              		.cfi_restore 14
  65              		.cfi_restore 3
  66              		.cfi_def_cfa_offset 0
 163:cpu/STM32F103/stm32f10x_tim.c ****       RCC_APB1PeriphResetCmd(RCC_APB1Periph_TIM5, DISABLE);
  67              		.loc 1 163 7 view .LVU9
  68 0026 0021     		movs	r1, #0
  69 0028 0820     		movs	r0, #8
  70 002a FFF7FEBF 		b	RCC_APB1PeriphResetCmd
  71              	.LVL3:
  72              	.L3:
  73              	.LCFI2:
  74              		.cfi_restore_state
 139:cpu/STM32F103/stm32f10x_tim.c ****   {
  75              		.loc 1 139 3 view .LVU10
  76 002e 304B     		ldr	r3, .L17+8
  77 0030 9842     		cmp	r0, r3
  78 0032 43D0     		beq	.L10
  79 0034 03F50063 		add	r3, r3, #2048
  80 0038 9842     		cmp	r0, r3
  81 003a 1CD1     		bne	.L16
 177:cpu/STM32F103/stm32f10x_tim.c ****       RCC_APB2PeriphResetCmd(RCC_APB2Periph_TIM8, DISABLE);  
  82              		.loc 1 177 7 is_stmt 1 view .LVU11
  83 003c 0121     		movs	r1, #1
  84 003e 4FF40050 		mov	r0, #8192
  85              	.LVL4:
 177:cpu/STM32F103/stm32f10x_tim.c ****       RCC_APB2PeriphResetCmd(RCC_APB2Periph_TIM8, DISABLE);  
  86              		.loc 1 177 7 is_stmt 0 view .LVU12
  87 0042 FFF7FEFF 		bl	RCC_APB2PeriphResetCmd
  88              	.LVL5:
 178:cpu/STM32F103/stm32f10x_tim.c ****       break; 
  89              		.loc 1 178 7 is_stmt 1 view .LVU13
  90              		.loc 1 184 1 is_stmt 0 view .LVU14
  91 0046 BDE80840 		pop	{r3, lr}
  92              	.LCFI3:
  93              		.cfi_remember_state
  94              		.cfi_restore 14
  95              		.cfi_restore 3
  96              		.cfi_def_cfa_offset 0
 178:cpu/STM32F103/stm32f10x_tim.c ****       break; 
  97              		.loc 1 178 7 view .LVU15
  98 004a 0021     		movs	r1, #0
  99 004c 4FF40050 		mov	r0, #8192
 100 0050 FFF7FEBF 		b	RCC_APB2PeriphResetCmd
 101              	.LVL6:
 102              	.L15:
 103              	.LCFI4:
 104              		.cfi_restore_state
 139:cpu/STM32F103/stm32f10x_tim.c ****   {
 105              		.loc 1 139 3 view .LVU16
 106 0054 B0F1804F 		cmp	r0, #1073741824
 107 0058 3CD0     		beq	.L6
 108 005a A3F58063 		sub	r3, r3, #1024
 109 005e 9842     		cmp	r0, r3
 110 0060 2BD1     		bne	.L1
 152:cpu/STM32F103/stm32f10x_tim.c ****       RCC_APB1PeriphResetCmd(RCC_APB1Periph_TIM3, DISABLE);
 111              		.loc 1 152 7 is_stmt 1 view .LVU17
 112 0062 0121     		movs	r1, #1
 113 0064 0220     		movs	r0, #2
 114              	.LVL7:
 152:cpu/STM32F103/stm32f10x_tim.c ****       RCC_APB1PeriphResetCmd(RCC_APB1Periph_TIM3, DISABLE);
 115              		.loc 1 152 7 is_stmt 0 view .LVU18
 116 0066 FFF7FEFF 		bl	RCC_APB1PeriphResetCmd
 117              	.LVL8:
 153:cpu/STM32F103/stm32f10x_tim.c ****       break;
 118              		.loc 1 153 7 is_stmt 1 view .LVU19
 119              		.loc 1 184 1 is_stmt 0 view .LVU20
 120 006a BDE80840 		pop	{r3, lr}
 121              	.LCFI5:
 122              		.cfi_remember_state
 123              		.cfi_restore 14
 124              		.cfi_restore 3
 125              		.cfi_def_cfa_offset 0
 153:cpu/STM32F103/stm32f10x_tim.c ****       break;
 126              		.loc 1 153 7 view .LVU21
 127 006e 0021     		movs	r1, #0
 128 0070 0220     		movs	r0, #2
 129 0072 FFF7FEBF 		b	RCC_APB1PeriphResetCmd
 130              	.LVL9:
 131              	.L16:
 132              	.LCFI6:
 133              		.cfi_restore_state
 139:cpu/STM32F103/stm32f10x_tim.c ****   {
 134              		.loc 1 139 3 view .LVU22
 135 0076 A3F59033 		sub	r3, r3, #73728
 136 007a 9842     		cmp	r0, r3
 137 007c 1DD1     		bne	.L1
 172:cpu/STM32F103/stm32f10x_tim.c ****       RCC_APB1PeriphResetCmd(RCC_APB1Periph_TIM7, DISABLE);
 138              		.loc 1 172 7 is_stmt 1 view .LVU23
 139 007e 0121     		movs	r1, #1
 140 0080 2020     		movs	r0, #32
 141              	.LVL10:
 172:cpu/STM32F103/stm32f10x_tim.c ****       RCC_APB1PeriphResetCmd(RCC_APB1Periph_TIM7, DISABLE);
 142              		.loc 1 172 7 is_stmt 0 view .LVU24
 143 0082 FFF7FEFF 		bl	RCC_APB1PeriphResetCmd
 144              	.LVL11:
 173:cpu/STM32F103/stm32f10x_tim.c ****       break;
 145              		.loc 1 173 7 is_stmt 1 view .LVU25
 146              		.loc 1 184 1 is_stmt 0 view .LVU26
 147 0086 BDE80840 		pop	{r3, lr}
 148              	.LCFI7:
 149              		.cfi_remember_state
 150              		.cfi_restore 14
 151              		.cfi_restore 3
 152              		.cfi_def_cfa_offset 0
 173:cpu/STM32F103/stm32f10x_tim.c ****       break;
 153              		.loc 1 173 7 view .LVU27
 154 008a 0021     		movs	r1, #0
 155 008c 2020     		movs	r0, #32
 156 008e FFF7FEBF 		b	RCC_APB1PeriphResetCmd
 157              	.LVL12:
 158              	.L2:
 159              	.LCFI8:
 160              		.cfi_restore_state
 167:cpu/STM32F103/stm32f10x_tim.c ****       RCC_APB1PeriphResetCmd(RCC_APB1Periph_TIM6, DISABLE);
 161              		.loc 1 167 7 is_stmt 1 view .LVU28
 162 0092 0121     		movs	r1, #1
 163 0094 1020     		movs	r0, #16
 164              	.LVL13:
 167:cpu/STM32F103/stm32f10x_tim.c ****       RCC_APB1PeriphResetCmd(RCC_APB1Periph_TIM6, DISABLE);
 165              		.loc 1 167 7 is_stmt 0 view .LVU29
 166 0096 FFF7FEFF 		bl	RCC_APB1PeriphResetCmd
 167              	.LVL14:
 168:cpu/STM32F103/stm32f10x_tim.c ****       break;
 168              		.loc 1 168 7 is_stmt 1 view .LVU30
 169              		.loc 1 184 1 is_stmt 0 view .LVU31
 170 009a BDE80840 		pop	{r3, lr}
 171              	.LCFI9:
 172              		.cfi_remember_state
 173              		.cfi_restore 14
 174              		.cfi_restore 3
 175              		.cfi_def_cfa_offset 0
 168:cpu/STM32F103/stm32f10x_tim.c ****       break;
 176              		.loc 1 168 7 view .LVU32
 177 009e 0021     		movs	r1, #0
 178 00a0 1020     		movs	r0, #16
 179 00a2 FFF7FEBF 		b	RCC_APB1PeriphResetCmd
 180              	.LVL15:
 181              	.L4:
 182              	.LCFI10:
 183              		.cfi_restore_state
 157:cpu/STM32F103/stm32f10x_tim.c ****       RCC_APB1PeriphResetCmd(RCC_APB1Periph_TIM4, DISABLE);
 184              		.loc 1 157 7 is_stmt 1 view .LVU33
 185 00a6 0121     		movs	r1, #1
 186 00a8 0420     		movs	r0, #4
 187              	.LVL16:
 157:cpu/STM32F103/stm32f10x_tim.c ****       RCC_APB1PeriphResetCmd(RCC_APB1Periph_TIM4, DISABLE);
 188              		.loc 1 157 7 is_stmt 0 view .LVU34
 189 00aa FFF7FEFF 		bl	RCC_APB1PeriphResetCmd
 190              	.LVL17:
 158:cpu/STM32F103/stm32f10x_tim.c ****       break;
 191              		.loc 1 158 7 is_stmt 1 view .LVU35
 192              		.loc 1 184 1 is_stmt 0 view .LVU36
 193 00ae BDE80840 		pop	{r3, lr}
 194              	.LCFI11:
 195              		.cfi_remember_state
 196              		.cfi_restore 14
 197              		.cfi_restore 3
 198              		.cfi_def_cfa_offset 0
 158:cpu/STM32F103/stm32f10x_tim.c ****       break;
 199              		.loc 1 158 7 view .LVU37
 200 00b2 0021     		movs	r1, #0
 201 00b4 0420     		movs	r0, #4
 202 00b6 FFF7FEBF 		b	RCC_APB1PeriphResetCmd
 203              	.LVL18:
 204              	.L1:
 205              	.LCFI12:
 206              		.cfi_restore_state
 207              		.loc 1 184 1 view .LVU38
 208 00ba 08BD     		pop	{r3, pc}
 209              	.L10:
 142:cpu/STM32F103/stm32f10x_tim.c ****       RCC_APB2PeriphResetCmd(RCC_APB2Periph_TIM1, DISABLE);  
 210              		.loc 1 142 7 is_stmt 1 view .LVU39
 211 00bc 0121     		movs	r1, #1
 212 00be 4FF40060 		mov	r0, #2048
 213              	.LVL19:
 142:cpu/STM32F103/stm32f10x_tim.c ****       RCC_APB2PeriphResetCmd(RCC_APB2Periph_TIM1, DISABLE);  
 214              		.loc 1 142 7 is_stmt 0 view .LVU40
 215 00c2 FFF7FEFF 		bl	RCC_APB2PeriphResetCmd
 216              	.LVL20:
 143:cpu/STM32F103/stm32f10x_tim.c ****       break; 
 217              		.loc 1 143 7 is_stmt 1 view .LVU41
 218              		.loc 1 184 1 is_stmt 0 view .LVU42
 219 00c6 BDE80840 		pop	{r3, lr}
 220              	.LCFI13:
 221              		.cfi_remember_state
 222              		.cfi_restore 14
 223              		.cfi_restore 3
 224              		.cfi_def_cfa_offset 0
 143:cpu/STM32F103/stm32f10x_tim.c ****       break; 
 225              		.loc 1 143 7 view .LVU43
 226 00ca 0021     		movs	r1, #0
 227 00cc 4FF40060 		mov	r0, #2048
 228 00d0 FFF7FEBF 		b	RCC_APB2PeriphResetCmd
 229              	.LVL21:
 230              	.L6:
 231              	.LCFI14:
 232              		.cfi_restore_state
 147:cpu/STM32F103/stm32f10x_tim.c ****       RCC_APB1PeriphResetCmd(RCC_APB1Periph_TIM2, DISABLE);
 233              		.loc 1 147 7 is_stmt 1 view .LVU44
 234 00d4 0121     		movs	r1, #1
 235 00d6 0846     		mov	r0, r1
 236              	.LVL22:
 147:cpu/STM32F103/stm32f10x_tim.c ****       RCC_APB1PeriphResetCmd(RCC_APB1Periph_TIM2, DISABLE);
 237              		.loc 1 147 7 is_stmt 0 view .LVU45
 238 00d8 FFF7FEFF 		bl	RCC_APB1PeriphResetCmd
 239              	.LVL23:
 148:cpu/STM32F103/stm32f10x_tim.c ****       break;
 240              		.loc 1 148 7 is_stmt 1 view .LVU46
 241              		.loc 1 184 1 is_stmt 0 view .LVU47
 242 00dc BDE80840 		pop	{r3, lr}
 243              	.LCFI15:
 244              		.cfi_restore 14
 245              		.cfi_restore 3
 246              		.cfi_def_cfa_offset 0
 148:cpu/STM32F103/stm32f10x_tim.c ****       break;
 247              		.loc 1 148 7 view .LVU48
 248 00e0 0021     		movs	r1, #0
 249 00e2 0120     		movs	r0, #1
 250 00e4 FFF7FEBF 		b	RCC_APB1PeriphResetCmd
 251              	.LVL24:
 252              	.L18:
 253              		.align	2
 254              	.L17:
 255 00e8 00100040 		.word	1073745920
 256 00ec 000C0040 		.word	1073744896
 257 00f0 002C0140 		.word	1073818624
 258              		.cfi_endproc
 259              	.LFE0:
 261              		.align	1
 262              		.p2align 2,,3
 263              		.global	TIM_TimeBaseInit
 264              		.syntax unified
 265              		.thumb
 266              		.thumb_func
 268              	TIM_TimeBaseInit:
 269              	.LVL25:
 270              	.LFB1:
 185:cpu/STM32F103/stm32f10x_tim.c **** 
 186:cpu/STM32F103/stm32f10x_tim.c **** /*******************************************************************************
 187:cpu/STM32F103/stm32f10x_tim.c **** * Function Name  : TIM_TimeBaseInit
 188:cpu/STM32F103/stm32f10x_tim.c **** * Description    : Initializes the TIMx Time Base Unit peripheral according to 
 189:cpu/STM32F103/stm32f10x_tim.c **** *                  the specified parameters in the TIM_TimeBaseInitStruct.
 190:cpu/STM32F103/stm32f10x_tim.c **** * Input          : - TIMx: where x can be 1, 2, 3, 4, 5 or 8 to select the TIM 
 191:cpu/STM32F103/stm32f10x_tim.c **** *                    peripheral.
 192:cpu/STM32F103/stm32f10x_tim.c **** *                  - TIM_TimeBaseInitStruct: pointer to a TIM_TimeBaseInitTypeDef
 193:cpu/STM32F103/stm32f10x_tim.c **** *                   structure that contains the configuration information for
 194:cpu/STM32F103/stm32f10x_tim.c **** *                   the specified TIM peripheral.
 195:cpu/STM32F103/stm32f10x_tim.c **** * Output         : None
 196:cpu/STM32F103/stm32f10x_tim.c **** * Return         : None
 197:cpu/STM32F103/stm32f10x_tim.c **** *******************************************************************************/
 198:cpu/STM32F103/stm32f10x_tim.c **** void TIM_TimeBaseInit(TIM_TypeDef* TIMx, TIM_TimeBaseInitTypeDef* TIM_TimeBaseInitStruct)
 199:cpu/STM32F103/stm32f10x_tim.c **** {
 271              		.loc 1 199 1 is_stmt 1 view -0
 272              		.cfi_startproc
 273              		@ args = 0, pretend = 0, frame = 0
 274              		@ frame_needed = 0, uses_anonymous_args = 0
 275              		@ link register save eliminated.
 200:cpu/STM32F103/stm32f10x_tim.c ****   /* Check the parameters */
 201:cpu/STM32F103/stm32f10x_tim.c ****   assert_param(IS_TIM_123458_PERIPH(TIMx)); 
 276              		.loc 1 201 3 view .LVU50
 202:cpu/STM32F103/stm32f10x_tim.c ****   assert_param(IS_TIM_COUNTER_MODE(TIM_TimeBaseInitStruct->TIM_CounterMode));
 277              		.loc 1 202 3 view .LVU51
 203:cpu/STM32F103/stm32f10x_tim.c ****   assert_param(IS_TIM_CKD_DIV(TIM_TimeBaseInitStruct->TIM_ClockDivision));
 278              		.loc 1 203 3 view .LVU52
 204:cpu/STM32F103/stm32f10x_tim.c **** 
 205:cpu/STM32F103/stm32f10x_tim.c ****   /* Select the Counter Mode and set the clock division */
 206:cpu/STM32F103/stm32f10x_tim.c ****   TIMx->CR1 &= CR1_CKD_Mask & CR1_CounterMode_Mask;
 279              		.loc 1 206 3 view .LVU53
 280              		.loc 1 206 13 is_stmt 0 view .LVU54
 281 00f4 0288     		ldrh	r2, [r0]
 207:cpu/STM32F103/stm32f10x_tim.c ****   TIMx->CR1 |= (u32)TIM_TimeBaseInitStruct->TIM_ClockDivision |
 282              		.loc 1 207 13 view .LVU55
 283 00f6 CB88     		ldrh	r3, [r1, #6]
 206:cpu/STM32F103/stm32f10x_tim.c ****   TIMx->CR1 |= (u32)TIM_TimeBaseInitStruct->TIM_ClockDivision |
 284              		.loc 1 206 13 view .LVU56
 285 00f8 02F08F02 		and	r2, r2, #143
 286              		.loc 1 207 13 view .LVU57
 287 00fc B1F802C0 		ldrh	ip, [r1, #2]
 206:cpu/STM32F103/stm32f10x_tim.c ****   TIMx->CR1 |= (u32)TIM_TimeBaseInitStruct->TIM_ClockDivision |
 288              		.loc 1 206 13 view .LVU58
 289 0100 0280     		strh	r2, [r0]	@ movhi
 290              		.loc 1 207 3 is_stmt 1 view .LVU59
 291              		.loc 1 207 13 is_stmt 0 view .LVU60
 292 0102 0288     		ldrh	r2, [r0]
 293 0104 43EA0C03 		orr	r3, r3, ip
 294 0108 1343     		orrs	r3, r3, r2
 295 010a 9BB2     		uxth	r3, r3
 199:cpu/STM32F103/stm32f10x_tim.c ****   /* Check the parameters */
 296              		.loc 1 199 1 view .LVU61
 297 010c 10B4     		push	{r4}
 298              	.LCFI16:
 299              		.cfi_def_cfa_offset 4
 300              		.cfi_offset 4, -4
 208:cpu/STM32F103/stm32f10x_tim.c ****                 TIM_TimeBaseInitStruct->TIM_CounterMode;
 209:cpu/STM32F103/stm32f10x_tim.c ****   /* Set the Autoreload value */
 210:cpu/STM32F103/stm32f10x_tim.c ****   TIMx->ARR = TIM_TimeBaseInitStruct->TIM_Period ;
 211:cpu/STM32F103/stm32f10x_tim.c **** 
 212:cpu/STM32F103/stm32f10x_tim.c ****   /* Set the Prescaler value */
 213:cpu/STM32F103/stm32f10x_tim.c ****   TIMx->PSC = TIM_TimeBaseInitStruct->TIM_Prescaler;
 214:cpu/STM32F103/stm32f10x_tim.c ****     
 215:cpu/STM32F103/stm32f10x_tim.c ****   if (((*(u32*)&TIMx) == TIM1_BASE) || ((*(u32*)&TIMx) == TIM8_BASE))  
 301              		.loc 1 215 6 view .LVU62
 302 010e 0A4C     		ldr	r4, .L23
 210:cpu/STM32F103/stm32f10x_tim.c **** 
 303              		.loc 1 210 37 view .LVU63
 304 0110 8A88     		ldrh	r2, [r1, #4]
 207:cpu/STM32F103/stm32f10x_tim.c ****                 TIM_TimeBaseInitStruct->TIM_CounterMode;
 305              		.loc 1 207 13 view .LVU64
 306 0112 0380     		strh	r3, [r0]	@ movhi
 210:cpu/STM32F103/stm32f10x_tim.c **** 
 307              		.loc 1 210 3 is_stmt 1 view .LVU65
 213:cpu/STM32F103/stm32f10x_tim.c ****     
 308              		.loc 1 213 37 is_stmt 0 view .LVU66
 309 0114 0B88     		ldrh	r3, [r1]
 310              		.loc 1 215 6 view .LVU67
 311 0116 A042     		cmp	r0, r4
 210:cpu/STM32F103/stm32f10x_tim.c **** 
 312              		.loc 1 210 13 view .LVU68
 313 0118 8285     		strh	r2, [r0, #44]	@ movhi
 213:cpu/STM32F103/stm32f10x_tim.c ****     
 314              		.loc 1 213 3 is_stmt 1 view .LVU69
 213:cpu/STM32F103/stm32f10x_tim.c ****     
 315              		.loc 1 213 13 is_stmt 0 view .LVU70
 316 011a 0385     		strh	r3, [r0, #40]	@ movhi
 317              		.loc 1 215 3 is_stmt 1 view .LVU71
 318              		.loc 1 215 6 is_stmt 0 view .LVU72
 319 011c 06D0     		beq	.L20
 320              		.loc 1 215 37 discriminator 1 view .LVU73
 321 011e 074B     		ldr	r3, .L23+4
 322 0120 9842     		cmp	r0, r3
 323 0122 03D0     		beq	.L20
 216:cpu/STM32F103/stm32f10x_tim.c ****   {
 217:cpu/STM32F103/stm32f10x_tim.c ****     /* Set the Repetition Counter value */
 218:cpu/STM32F103/stm32f10x_tim.c ****     TIMx->RCR = TIM_TimeBaseInitStruct->TIM_RepetitionCounter;
 219:cpu/STM32F103/stm32f10x_tim.c ****   }
 220:cpu/STM32F103/stm32f10x_tim.c ****   
 221:cpu/STM32F103/stm32f10x_tim.c ****   /* Generate an update event to reload the Prescaler value immediatly */
 222:cpu/STM32F103/stm32f10x_tim.c ****   TIMx->EGR = TIM_PSCReloadMode_Immediate;          
 324              		.loc 1 222 3 is_stmt 1 view .LVU74
 325              		.loc 1 222 13 is_stmt 0 view .LVU75
 326 0124 0123     		movs	r3, #1
 223:cpu/STM32F103/stm32f10x_tim.c **** }
 327              		.loc 1 223 1 view .LVU76
 328 0126 10BC     		pop	{r4}
 329              	.LCFI17:
 330              		.cfi_remember_state
 331              		.cfi_restore 4
 332              		.cfi_def_cfa_offset 0
 222:cpu/STM32F103/stm32f10x_tim.c **** }
 333              		.loc 1 222 13 view .LVU77
 334 0128 8382     		strh	r3, [r0, #20]	@ movhi
 335              		.loc 1 223 1 view .LVU78
 336 012a 7047     		bx	lr
 337              	.L20:
 338              	.LCFI18:
 339              		.cfi_restore_state
 218:cpu/STM32F103/stm32f10x_tim.c ****   }
 340              		.loc 1 218 5 is_stmt 1 view .LVU79
 218:cpu/STM32F103/stm32f10x_tim.c ****   }
 341              		.loc 1 218 39 is_stmt 0 view .LVU80
 342 012c 0B7A     		ldrb	r3, [r1, #8]	@ zero_extendqisi2
 343              		.loc 1 223 1 view .LVU81
 344 012e 10BC     		pop	{r4}
 345              	.LCFI19:
 346              		.cfi_restore 4
 347              		.cfi_def_cfa_offset 0
 218:cpu/STM32F103/stm32f10x_tim.c ****   }
 348              		.loc 1 218 15 view .LVU82
 349 0130 0386     		strh	r3, [r0, #48]	@ movhi
 222:cpu/STM32F103/stm32f10x_tim.c **** }
 350              		.loc 1 222 3 is_stmt 1 view .LVU83
 222:cpu/STM32F103/stm32f10x_tim.c **** }
 351              		.loc 1 222 13 is_stmt 0 view .LVU84
 352 0132 0123     		movs	r3, #1
 353 0134 8382     		strh	r3, [r0, #20]	@ movhi
 354              		.loc 1 223 1 view .LVU85
 355 0136 7047     		bx	lr
 356              	.L24:
 357              		.align	2
 358              	.L23:
 359 0138 002C0140 		.word	1073818624
 360 013c 00340140 		.word	1073820672
 361              		.cfi_endproc
 362              	.LFE1:
 364              		.align	1
 365              		.p2align 2,,3
 366              		.global	TIM_OC1Init
 367              		.syntax unified
 368              		.thumb
 369              		.thumb_func
 371              	TIM_OC1Init:
 372              	.LVL26:
 373              	.LFB2:
 224:cpu/STM32F103/stm32f10x_tim.c **** 
 225:cpu/STM32F103/stm32f10x_tim.c **** /*******************************************************************************
 226:cpu/STM32F103/stm32f10x_tim.c **** * Function Name  : TIM_OC1Init
 227:cpu/STM32F103/stm32f10x_tim.c **** * Description    : Initializes the TIMx Channel1 according to the specified
 228:cpu/STM32F103/stm32f10x_tim.c **** *                  parameters in the TIM_OCInitStruct.
 229:cpu/STM32F103/stm32f10x_tim.c **** * Input          : - TIMx: where x can be  1, 2, 3, 4, 5 or 8 to select the TIM 
 230:cpu/STM32F103/stm32f10x_tim.c **** *                    peripheral.
 231:cpu/STM32F103/stm32f10x_tim.c **** *                  - TIM_OCInitStruct: pointer to a TIM_OCInitTypeDef structure
 232:cpu/STM32F103/stm32f10x_tim.c **** *                    that contains the configuration information for the specified
 233:cpu/STM32F103/stm32f10x_tim.c **** *                    TIM peripheral.
 234:cpu/STM32F103/stm32f10x_tim.c **** * Output         : None
 235:cpu/STM32F103/stm32f10x_tim.c **** * Return         : None
 236:cpu/STM32F103/stm32f10x_tim.c **** *******************************************************************************/
 237:cpu/STM32F103/stm32f10x_tim.c **** void TIM_OC1Init(TIM_TypeDef* TIMx, TIM_OCInitTypeDef* TIM_OCInitStruct)
 238:cpu/STM32F103/stm32f10x_tim.c **** {
 374              		.loc 1 238 1 is_stmt 1 view -0
 375              		.cfi_startproc
 376              		@ args = 0, pretend = 0, frame = 0
 377              		@ frame_needed = 0, uses_anonymous_args = 0
 239:cpu/STM32F103/stm32f10x_tim.c ****   u16 tmpccmrx = 0, tmpccer = 0, tmpcr2 = 0;
 378              		.loc 1 239 3 view .LVU87
 240:cpu/STM32F103/stm32f10x_tim.c ****    
 241:cpu/STM32F103/stm32f10x_tim.c ****   /* Check the parameters */
 242:cpu/STM32F103/stm32f10x_tim.c ****   assert_param(IS_TIM_123458_PERIPH(TIMx)); 
 379              		.loc 1 242 3 view .LVU88
 243:cpu/STM32F103/stm32f10x_tim.c ****   assert_param(IS_TIM_OC_MODE(TIM_OCInitStruct->TIM_OCMode));
 380              		.loc 1 243 3 view .LVU89
 244:cpu/STM32F103/stm32f10x_tim.c ****   assert_param(IS_TIM_OUTPUT_STATE(TIM_OCInitStruct->TIM_OutputState));
 381              		.loc 1 244 3 view .LVU90
 245:cpu/STM32F103/stm32f10x_tim.c ****   assert_param(IS_TIM_OC_POLARITY(TIM_OCInitStruct->TIM_OCPolarity));   
 382              		.loc 1 245 3 view .LVU91
 246:cpu/STM32F103/stm32f10x_tim.c **** 
 247:cpu/STM32F103/stm32f10x_tim.c ****   /* Disable the Channel 1: Reset the CC1E Bit */
 248:cpu/STM32F103/stm32f10x_tim.c ****   TIMx->CCER &= CCER_CC1E_Reset;
 383              		.loc 1 248 3 view .LVU92
 384              		.loc 1 248 14 is_stmt 0 view .LVU93
 385 0140 038C     		ldrh	r3, [r0, #32]
 238:cpu/STM32F103/stm32f10x_tim.c ****   u16 tmpccmrx = 0, tmpccer = 0, tmpcr2 = 0;
 386              		.loc 1 238 1 view .LVU94
 387 0142 10B5     		push	{r4, lr}
 388              	.LCFI20:
 389              		.cfi_def_cfa_offset 8
 390              		.cfi_offset 4, -8
 391              		.cfi_offset 14, -4
 392              		.loc 1 248 14 view .LVU95
 393 0144 23F00103 		bic	r3, r3, #1
 394 0148 1B04     		lsls	r3, r3, #16
 395 014a 1B0C     		lsrs	r3, r3, #16
 396 014c 0384     		strh	r3, [r0, #32]	@ movhi
 249:cpu/STM32F103/stm32f10x_tim.c ****   
 250:cpu/STM32F103/stm32f10x_tim.c ****   /* Get the TIMx CCER register value */
 251:cpu/STM32F103/stm32f10x_tim.c ****   tmpccer = TIMx->CCER;
 397              		.loc 1 251 3 is_stmt 1 view .LVU96
 398              		.loc 1 251 11 is_stmt 0 view .LVU97
 399 014e 038C     		ldrh	r3, [r0, #32]
 400              	.LVL27:
 252:cpu/STM32F103/stm32f10x_tim.c **** 
 253:cpu/STM32F103/stm32f10x_tim.c ****   /* Get the TIMx CR2 register value */
 254:cpu/STM32F103/stm32f10x_tim.c ****   tmpcr2 =  TIMx->CR2;
 401              		.loc 1 254 3 is_stmt 1 view .LVU98
 402              		.loc 1 254 10 is_stmt 0 view .LVU99
 403 0150 B0F804C0 		ldrh	ip, [r0, #4]
 255:cpu/STM32F103/stm32f10x_tim.c ****   
 256:cpu/STM32F103/stm32f10x_tim.c ****   /* Get the TIMx CCMR1 register value */
 257:cpu/STM32F103/stm32f10x_tim.c ****   tmpccmrx = TIMx->CCMR1;
 258:cpu/STM32F103/stm32f10x_tim.c ****     
 259:cpu/STM32F103/stm32f10x_tim.c ****   /* Reset the Output Compare Mode Bits */
 260:cpu/STM32F103/stm32f10x_tim.c ****   tmpccmrx &= CCMR_OC13M_Mask;
 261:cpu/STM32F103/stm32f10x_tim.c ****   
 262:cpu/STM32F103/stm32f10x_tim.c ****   /* Select the Output Compare Mode */
 263:cpu/STM32F103/stm32f10x_tim.c ****   tmpccmrx |= TIM_OCInitStruct->TIM_OCMode;
 264:cpu/STM32F103/stm32f10x_tim.c ****   
 265:cpu/STM32F103/stm32f10x_tim.c ****   /* Reset the Output Polarity level */
 266:cpu/STM32F103/stm32f10x_tim.c ****   tmpccer &= CCER_CC1P_Reset;
 404              		.loc 1 266 11 view .LVU100
 405 0154 23F00203 		bic	r3, r3, #2
 406              	.LVL28:
 257:cpu/STM32F103/stm32f10x_tim.c ****     
 407              		.loc 1 257 12 view .LVU101
 408 0158 028B     		ldrh	r2, [r0, #24]
 267:cpu/STM32F103/stm32f10x_tim.c **** 
 268:cpu/STM32F103/stm32f10x_tim.c ****   /* Set the Output Compare Polarity */
 269:cpu/STM32F103/stm32f10x_tim.c ****   tmpccer |= TIM_OCInitStruct->TIM_OCPolarity;
 409              		.loc 1 269 11 view .LVU102
 410 015a B1F808E0 		ldrh	lr, [r1, #8]
 266:cpu/STM32F103/stm32f10x_tim.c **** 
 411              		.loc 1 266 11 view .LVU103
 412 015e 1B04     		lsls	r3, r3, #16
 413 0160 1B0C     		lsrs	r3, r3, #16
 260:cpu/STM32F103/stm32f10x_tim.c ****   
 414              		.loc 1 260 12 view .LVU104
 415 0162 22F07002 		bic	r2, r2, #112
 416              		.loc 1 269 11 view .LVU105
 417 0166 43EA0E03 		orr	r3, r3, lr
 260:cpu/STM32F103/stm32f10x_tim.c ****   
 418              		.loc 1 260 12 view .LVU106
 419 016a 1204     		lsls	r2, r2, #16
 263:cpu/STM32F103/stm32f10x_tim.c ****   
 420              		.loc 1 263 12 view .LVU107
 421 016c B1F800E0 		ldrh	lr, [r1]
 260:cpu/STM32F103/stm32f10x_tim.c ****   
 422              		.loc 1 260 12 view .LVU108
 423 0170 120C     		lsrs	r2, r2, #16
 263:cpu/STM32F103/stm32f10x_tim.c ****   
 424              		.loc 1 263 12 view .LVU109
 425 0172 42EA0E02 		orr	r2, r2, lr
 270:cpu/STM32F103/stm32f10x_tim.c ****   
 271:cpu/STM32F103/stm32f10x_tim.c ****   /* Set the Output State */
 272:cpu/STM32F103/stm32f10x_tim.c ****   tmpccer |= TIM_OCInitStruct->TIM_OutputState;
 426              		.loc 1 272 11 view .LVU110
 427 0176 B1F802E0 		ldrh	lr, [r1, #2]
 273:cpu/STM32F103/stm32f10x_tim.c ****   
 274:cpu/STM32F103/stm32f10x_tim.c ****   /* Set the Capture Compare Register value */
 275:cpu/STM32F103/stm32f10x_tim.c ****   TIMx->CCR1 = TIM_OCInitStruct->TIM_Pulse;
 276:cpu/STM32F103/stm32f10x_tim.c ****   
 277:cpu/STM32F103/stm32f10x_tim.c ****   if((*(u32*)&TIMx == TIM1_BASE) || (*(u32*)&TIMx == TIM8_BASE))
 428              		.loc 1 277 5 view .LVU111
 429 017a 154C     		ldr	r4, .L29
 272:cpu/STM32F103/stm32f10x_tim.c ****   
 430              		.loc 1 272 11 view .LVU112
 431 017c 43EA0E03 		orr	r3, r3, lr
 275:cpu/STM32F103/stm32f10x_tim.c ****   
 432              		.loc 1 275 32 view .LVU113
 433 0180 B1F806E0 		ldrh	lr, [r1, #6]
 434              		.loc 1 277 5 view .LVU114
 435 0184 A042     		cmp	r0, r4
 254:cpu/STM32F103/stm32f10x_tim.c ****   
 436              		.loc 1 254 10 view .LVU115
 437 0186 1FFA8CFC 		uxth	ip, ip
 438              	.LVL29:
 257:cpu/STM32F103/stm32f10x_tim.c ****     
 439              		.loc 1 257 3 is_stmt 1 view .LVU116
 260:cpu/STM32F103/stm32f10x_tim.c ****   
 440              		.loc 1 260 3 view .LVU117
 263:cpu/STM32F103/stm32f10x_tim.c ****   
 441              		.loc 1 263 3 view .LVU118
 266:cpu/STM32F103/stm32f10x_tim.c **** 
 442              		.loc 1 266 3 view .LVU119
 269:cpu/STM32F103/stm32f10x_tim.c ****   
 443              		.loc 1 269 3 view .LVU120
 272:cpu/STM32F103/stm32f10x_tim.c ****   
 444              		.loc 1 272 3 view .LVU121
 275:cpu/STM32F103/stm32f10x_tim.c ****   
 445              		.loc 1 275 3 view .LVU122
 275:cpu/STM32F103/stm32f10x_tim.c ****   
 446              		.loc 1 275 14 is_stmt 0 view .LVU123
 447 018a A0F834E0 		strh	lr, [r0, #52]	@ movhi
 448              		.loc 1 277 3 is_stmt 1 view .LVU124
 449              		.loc 1 277 5 is_stmt 0 view .LVU125
 450 018e 08D0     		beq	.L26
 451              		.loc 1 277 34 discriminator 1 view .LVU126
 452 0190 04F50064 		add	r4, r4, #2048
 453 0194 A042     		cmp	r0, r4
 454 0196 04D0     		beq	.L26
 278:cpu/STM32F103/stm32f10x_tim.c ****   {
 279:cpu/STM32F103/stm32f10x_tim.c ****     assert_param(IS_TIM_OUTPUTN_STATE(TIM_OCInitStruct->TIM_OutputNState));
 280:cpu/STM32F103/stm32f10x_tim.c ****     assert_param(IS_TIM_OCN_POLARITY(TIM_OCInitStruct->TIM_OCNPolarity));
 281:cpu/STM32F103/stm32f10x_tim.c ****     assert_param(IS_TIM_OCNIDLE_STATE(TIM_OCInitStruct->TIM_OCNIdleState));
 282:cpu/STM32F103/stm32f10x_tim.c ****     assert_param(IS_TIM_OCIDLE_STATE(TIM_OCInitStruct->TIM_OCIdleState));
 283:cpu/STM32F103/stm32f10x_tim.c ****     
 284:cpu/STM32F103/stm32f10x_tim.c ****     /* Reset the Output N Polarity level */
 285:cpu/STM32F103/stm32f10x_tim.c ****     tmpccer &= CCER_CC1NP_Reset;
 286:cpu/STM32F103/stm32f10x_tim.c **** 
 287:cpu/STM32F103/stm32f10x_tim.c ****     /* Set the Output N Polarity */
 288:cpu/STM32F103/stm32f10x_tim.c ****     tmpccer |= TIM_OCInitStruct->TIM_OCNPolarity;
 289:cpu/STM32F103/stm32f10x_tim.c **** 
 290:cpu/STM32F103/stm32f10x_tim.c ****     /* Reset the Output N State */
 291:cpu/STM32F103/stm32f10x_tim.c ****     tmpccer &= CCER_CC1NE_Reset;
 292:cpu/STM32F103/stm32f10x_tim.c ****     
 293:cpu/STM32F103/stm32f10x_tim.c ****     /* Set the Output N State */
 294:cpu/STM32F103/stm32f10x_tim.c ****     tmpccer |= TIM_OCInitStruct->TIM_OutputNState;
 295:cpu/STM32F103/stm32f10x_tim.c **** 
 296:cpu/STM32F103/stm32f10x_tim.c ****     /* Reset the Ouput Compare and Output Compare N IDLE State */
 297:cpu/STM32F103/stm32f10x_tim.c ****     tmpcr2 &= CR2_OIS1_Reset;
 298:cpu/STM32F103/stm32f10x_tim.c ****     tmpcr2 &= CR2_OIS1N_Reset;
 299:cpu/STM32F103/stm32f10x_tim.c **** 
 300:cpu/STM32F103/stm32f10x_tim.c ****     /* Set the Output Idle state */
 301:cpu/STM32F103/stm32f10x_tim.c ****     tmpcr2 |= TIM_OCInitStruct->TIM_OCIdleState;
 302:cpu/STM32F103/stm32f10x_tim.c **** 
 303:cpu/STM32F103/stm32f10x_tim.c ****     /* Set the Output N Idle state */
 304:cpu/STM32F103/stm32f10x_tim.c ****     tmpcr2 |= TIM_OCInitStruct->TIM_OCNIdleState;
 305:cpu/STM32F103/stm32f10x_tim.c ****   }
 306:cpu/STM32F103/stm32f10x_tim.c ****   /* Write to TIMx CR2 */
 307:cpu/STM32F103/stm32f10x_tim.c ****   TIMx->CR2 = tmpcr2;
 455              		.loc 1 307 3 is_stmt 1 view .LVU127
 456              		.loc 1 307 13 is_stmt 0 view .LVU128
 457 0198 A0F804C0 		strh	ip, [r0, #4]	@ movhi
 308:cpu/STM32F103/stm32f10x_tim.c ****   
 309:cpu/STM32F103/stm32f10x_tim.c ****   /* Write to TIMx CCMR1 */
 310:cpu/STM32F103/stm32f10x_tim.c ****   TIMx->CCMR1 = tmpccmrx;
 458              		.loc 1 310 3 is_stmt 1 view .LVU129
 459              		.loc 1 310 15 is_stmt 0 view .LVU130
 460 019c 0283     		strh	r2, [r0, #24]	@ movhi
 311:cpu/STM32F103/stm32f10x_tim.c ****   
 312:cpu/STM32F103/stm32f10x_tim.c ****   /* Write to TIMx CCER */
 313:cpu/STM32F103/stm32f10x_tim.c ****   TIMx->CCER = tmpccer;
 461              		.loc 1 313 3 is_stmt 1 view .LVU131
 462              		.loc 1 313 14 is_stmt 0 view .LVU132
 463 019e 0384     		strh	r3, [r0, #32]	@ movhi
 314:cpu/STM32F103/stm32f10x_tim.c **** }
 464              		.loc 1 314 1 view .LVU133
 465 01a0 10BD     		pop	{r4, pc}
 466              	.L26:
 279:cpu/STM32F103/stm32f10x_tim.c ****     assert_param(IS_TIM_OCN_POLARITY(TIM_OCInitStruct->TIM_OCNPolarity));
 467              		.loc 1 279 5 is_stmt 1 view .LVU134
 280:cpu/STM32F103/stm32f10x_tim.c ****     assert_param(IS_TIM_OCNIDLE_STATE(TIM_OCInitStruct->TIM_OCNIdleState));
 468              		.loc 1 280 5 view .LVU135
 281:cpu/STM32F103/stm32f10x_tim.c ****     assert_param(IS_TIM_OCIDLE_STATE(TIM_OCInitStruct->TIM_OCIdleState));
 469              		.loc 1 281 5 view .LVU136
 282:cpu/STM32F103/stm32f10x_tim.c ****     
 470              		.loc 1 282 5 view .LVU137
 285:cpu/STM32F103/stm32f10x_tim.c **** 
 471              		.loc 1 285 5 view .LVU138
 298:cpu/STM32F103/stm32f10x_tim.c **** 
 472              		.loc 1 298 12 is_stmt 0 view .LVU139
 473 01a2 47F6FF4E 		movw	lr, #31999
 288:cpu/STM32F103/stm32f10x_tim.c **** 
 474              		.loc 1 288 13 view .LVU140
 475 01a6 4C89     		ldrh	r4, [r1, #10]
 285:cpu/STM32F103/stm32f10x_tim.c **** 
 476              		.loc 1 285 13 view .LVU141
 477 01a8 23F00803 		bic	r3, r3, #8
 478              	.LVL30:
 288:cpu/STM32F103/stm32f10x_tim.c **** 
 479              		.loc 1 288 5 is_stmt 1 view .LVU142
 288:cpu/STM32F103/stm32f10x_tim.c **** 
 480              		.loc 1 288 13 is_stmt 0 view .LVU143
 481 01ac 2343     		orrs	r3, r3, r4
 482              	.LVL31:
 291:cpu/STM32F103/stm32f10x_tim.c ****     
 483              		.loc 1 291 5 is_stmt 1 view .LVU144
 301:cpu/STM32F103/stm32f10x_tim.c **** 
 484              		.loc 1 301 12 is_stmt 0 view .LVU145
 485 01ae 8C89     		ldrh	r4, [r1, #12]
 298:cpu/STM32F103/stm32f10x_tim.c **** 
 486              		.loc 1 298 12 view .LVU146
 487 01b0 0CEA0E0C 		and	ip, ip, lr
 488              	.LVL32:
 301:cpu/STM32F103/stm32f10x_tim.c **** 
 489              		.loc 1 301 12 view .LVU147
 490 01b4 4CEA040C 		orr	ip, ip, r4
 294:cpu/STM32F103/stm32f10x_tim.c **** 
 491              		.loc 1 294 13 view .LVU148
 492 01b8 8C88     		ldrh	r4, [r1, #4]
 304:cpu/STM32F103/stm32f10x_tim.c ****   }
 493              		.loc 1 304 12 view .LVU149
 494 01ba C989     		ldrh	r1, [r1, #14]
 495              	.LVL33:
 291:cpu/STM32F103/stm32f10x_tim.c ****     
 496              		.loc 1 291 13 view .LVU150
 497 01bc 23F00403 		bic	r3, r3, #4
 498              	.LVL34:
 294:cpu/STM32F103/stm32f10x_tim.c **** 
 499              		.loc 1 294 5 is_stmt 1 view .LVU151
 294:cpu/STM32F103/stm32f10x_tim.c **** 
 500              		.loc 1 294 13 is_stmt 0 view .LVU152
 501 01c0 2343     		orrs	r3, r3, r4
 502              	.LVL35:
 297:cpu/STM32F103/stm32f10x_tim.c ****     tmpcr2 &= CR2_OIS1N_Reset;
 503              		.loc 1 297 5 is_stmt 1 view .LVU153
 298:cpu/STM32F103/stm32f10x_tim.c **** 
 504              		.loc 1 298 5 view .LVU154
 301:cpu/STM32F103/stm32f10x_tim.c **** 
 505              		.loc 1 301 5 view .LVU155
 304:cpu/STM32F103/stm32f10x_tim.c ****   }
 506              		.loc 1 304 5 view .LVU156
 304:cpu/STM32F103/stm32f10x_tim.c ****   }
 507              		.loc 1 304 12 is_stmt 0 view .LVU157
 508 01c2 4CEA010C 		orr	ip, ip, r1
 509              	.LVL36:
 307:cpu/STM32F103/stm32f10x_tim.c ****   
 510              		.loc 1 307 3 is_stmt 1 view .LVU158
 307:cpu/STM32F103/stm32f10x_tim.c ****   
 511              		.loc 1 307 13 is_stmt 0 view .LVU159
 512 01c6 A0F804C0 		strh	ip, [r0, #4]	@ movhi
 310:cpu/STM32F103/stm32f10x_tim.c ****   
 513              		.loc 1 310 3 is_stmt 1 view .LVU160
 310:cpu/STM32F103/stm32f10x_tim.c ****   
 514              		.loc 1 310 15 is_stmt 0 view .LVU161
 515 01ca 0283     		strh	r2, [r0, #24]	@ movhi
 313:cpu/STM32F103/stm32f10x_tim.c **** }
 516              		.loc 1 313 3 is_stmt 1 view .LVU162
 313:cpu/STM32F103/stm32f10x_tim.c **** }
 517              		.loc 1 313 14 is_stmt 0 view .LVU163
 518 01cc 0384     		strh	r3, [r0, #32]	@ movhi
 519              		.loc 1 314 1 view .LVU164
 520 01ce 10BD     		pop	{r4, pc}
 521              	.L30:
 522              		.align	2
 523              	.L29:
 524 01d0 002C0140 		.word	1073818624
 525              		.cfi_endproc
 526              	.LFE2:
 528              		.align	1
 529              		.p2align 2,,3
 530              		.global	TIM_OC2Init
 531              		.syntax unified
 532              		.thumb
 533              		.thumb_func
 535              	TIM_OC2Init:
 536              	.LVL37:
 537              	.LFB3:
 315:cpu/STM32F103/stm32f10x_tim.c **** 
 316:cpu/STM32F103/stm32f10x_tim.c **** /*******************************************************************************
 317:cpu/STM32F103/stm32f10x_tim.c **** * Function Name  : TIM_OC2Init
 318:cpu/STM32F103/stm32f10x_tim.c **** * Description    : Initializes the TIMx Channel2 according to the specified
 319:cpu/STM32F103/stm32f10x_tim.c **** *                  parameters in the TIM_OCInitStruct.
 320:cpu/STM32F103/stm32f10x_tim.c **** * Input          : - TIMx: where x can be  1, 2, 3, 4, 5 or 8 to select the TIM 
 321:cpu/STM32F103/stm32f10x_tim.c **** *                    peripheral.
 322:cpu/STM32F103/stm32f10x_tim.c **** *                  - TIM_OCInitStruct: pointer to a TIM_OCInitTypeDef structure
 323:cpu/STM32F103/stm32f10x_tim.c **** *                    that contains the configuration information for the specified
 324:cpu/STM32F103/stm32f10x_tim.c **** *                    TIM peripheral.
 325:cpu/STM32F103/stm32f10x_tim.c **** * Output         : None
 326:cpu/STM32F103/stm32f10x_tim.c **** * Return         : None
 327:cpu/STM32F103/stm32f10x_tim.c **** *******************************************************************************/
 328:cpu/STM32F103/stm32f10x_tim.c **** void TIM_OC2Init(TIM_TypeDef* TIMx, TIM_OCInitTypeDef* TIM_OCInitStruct)
 329:cpu/STM32F103/stm32f10x_tim.c **** {
 538              		.loc 1 329 1 is_stmt 1 view -0
 539              		.cfi_startproc
 540              		@ args = 0, pretend = 0, frame = 0
 541              		@ frame_needed = 0, uses_anonymous_args = 0
 330:cpu/STM32F103/stm32f10x_tim.c ****   u16 tmpccmrx = 0, tmpccer = 0, tmpcr2 = 0;
 542              		.loc 1 330 3 view .LVU166
 331:cpu/STM32F103/stm32f10x_tim.c ****    
 332:cpu/STM32F103/stm32f10x_tim.c ****   /* Check the parameters */
 333:cpu/STM32F103/stm32f10x_tim.c ****   assert_param(IS_TIM_123458_PERIPH(TIMx)); 
 543              		.loc 1 333 3 view .LVU167
 334:cpu/STM32F103/stm32f10x_tim.c ****   assert_param(IS_TIM_OC_MODE(TIM_OCInitStruct->TIM_OCMode));
 544              		.loc 1 334 3 view .LVU168
 335:cpu/STM32F103/stm32f10x_tim.c ****   assert_param(IS_TIM_OUTPUT_STATE(TIM_OCInitStruct->TIM_OutputState));
 545              		.loc 1 335 3 view .LVU169
 336:cpu/STM32F103/stm32f10x_tim.c ****   assert_param(IS_TIM_OC_POLARITY(TIM_OCInitStruct->TIM_OCPolarity));   
 546              		.loc 1 336 3 view .LVU170
 337:cpu/STM32F103/stm32f10x_tim.c **** 
 338:cpu/STM32F103/stm32f10x_tim.c ****   /* Disable the Channel 2: Reset the CC2E Bit */
 339:cpu/STM32F103/stm32f10x_tim.c ****   TIMx->CCER &= CCER_CC2E_Reset;
 547              		.loc 1 339 3 view .LVU171
 548              		.loc 1 339 14 is_stmt 0 view .LVU172
 549 01d4 038C     		ldrh	r3, [r0, #32]
 329:cpu/STM32F103/stm32f10x_tim.c ****   u16 tmpccmrx = 0, tmpccer = 0, tmpcr2 = 0;
 550              		.loc 1 329 1 view .LVU173
 551 01d6 30B5     		push	{r4, r5, lr}
 552              	.LCFI21:
 553              		.cfi_def_cfa_offset 12
 554              		.cfi_offset 4, -12
 555              		.cfi_offset 5, -8
 556              		.cfi_offset 14, -4
 557              		.loc 1 339 14 view .LVU174
 558 01d8 23F01003 		bic	r3, r3, #16
 559 01dc 1B04     		lsls	r3, r3, #16
 560 01de 1B0C     		lsrs	r3, r3, #16
 561 01e0 0384     		strh	r3, [r0, #32]	@ movhi
 340:cpu/STM32F103/stm32f10x_tim.c ****   
 341:cpu/STM32F103/stm32f10x_tim.c ****   /* Get the TIMx CCER register value */  
 342:cpu/STM32F103/stm32f10x_tim.c ****   tmpccer = TIMx->CCER;
 562              		.loc 1 342 3 is_stmt 1 view .LVU175
 563              		.loc 1 342 11 is_stmt 0 view .LVU176
 564 01e2 038C     		ldrh	r3, [r0, #32]
 565              	.LVL38:
 343:cpu/STM32F103/stm32f10x_tim.c **** 
 344:cpu/STM32F103/stm32f10x_tim.c ****   /* Get the TIMx CR2 register value */
 345:cpu/STM32F103/stm32f10x_tim.c ****   tmpcr2 =  TIMx->CR2;
 566              		.loc 1 345 3 is_stmt 1 view .LVU177
 346:cpu/STM32F103/stm32f10x_tim.c ****   
 347:cpu/STM32F103/stm32f10x_tim.c ****   /* Get the TIMx CCMR1 register value */
 348:cpu/STM32F103/stm32f10x_tim.c ****   tmpccmrx = TIMx->CCMR1;
 349:cpu/STM32F103/stm32f10x_tim.c ****     
 350:cpu/STM32F103/stm32f10x_tim.c ****   /* Reset the Output Compare Mode Bits */
 351:cpu/STM32F103/stm32f10x_tim.c ****   tmpccmrx &= CCMR_OC24M_Mask;
 352:cpu/STM32F103/stm32f10x_tim.c ****   
 353:cpu/STM32F103/stm32f10x_tim.c ****   /* Select the Output Compare Mode */
 354:cpu/STM32F103/stm32f10x_tim.c ****   tmpccmrx |= (u16)(TIM_OCInitStruct->TIM_OCMode << 8);
 355:cpu/STM32F103/stm32f10x_tim.c ****   
 356:cpu/STM32F103/stm32f10x_tim.c ****   /* Reset the Output Polarity level */
 357:cpu/STM32F103/stm32f10x_tim.c ****   tmpccer &= CCER_CC2P_Reset;
 358:cpu/STM32F103/stm32f10x_tim.c **** 
 359:cpu/STM32F103/stm32f10x_tim.c ****   /* Set the Output Compare Polarity */
 360:cpu/STM32F103/stm32f10x_tim.c ****   tmpccer |= (u16)(TIM_OCInitStruct->TIM_OCPolarity << 4);
 567              		.loc 1 360 14 is_stmt 0 view .LVU178
 568 01e4 B1F808E0 		ldrh	lr, [r1, #8]
 345:cpu/STM32F103/stm32f10x_tim.c ****   
 569              		.loc 1 345 10 view .LVU179
 570 01e8 B0F804C0 		ldrh	ip, [r0, #4]
 361:cpu/STM32F103/stm32f10x_tim.c ****   
 362:cpu/STM32F103/stm32f10x_tim.c ****   /* Set the Output State */
 363:cpu/STM32F103/stm32f10x_tim.c ****   tmpccer |= (u16)(TIM_OCInitStruct->TIM_OutputState << 4);
 571              		.loc 1 363 14 view .LVU180
 572 01ec 4D88     		ldrh	r5, [r1, #2]
 348:cpu/STM32F103/stm32f10x_tim.c ****     
 573              		.loc 1 348 12 view .LVU181
 574 01ee 028B     		ldrh	r2, [r0, #24]
 357:cpu/STM32F103/stm32f10x_tim.c **** 
 575              		.loc 1 357 11 view .LVU182
 576 01f0 23F02003 		bic	r3, r3, #32
 577              	.LVL39:
 357:cpu/STM32F103/stm32f10x_tim.c **** 
 578              		.loc 1 357 11 view .LVU183
 579 01f4 1B04     		lsls	r3, r3, #16
 580              		.loc 1 363 11 view .LVU184
 581 01f6 4EEA050E 		orr	lr, lr, r5
 357:cpu/STM32F103/stm32f10x_tim.c **** 
 582              		.loc 1 357 11 view .LVU185
 583 01fa 1B0C     		lsrs	r3, r3, #16
 351:cpu/STM32F103/stm32f10x_tim.c ****   
 584              		.loc 1 351 12 view .LVU186
 585 01fc 22F4E042 		bic	r2, r2, #28672
 586              		.loc 1 363 11 view .LVU187
 587 0200 43EA0E13 		orr	r3, r3, lr, lsl #4
 351:cpu/STM32F103/stm32f10x_tim.c ****   
 588              		.loc 1 351 12 view .LVU188
 589 0204 1204     		lsls	r2, r2, #16
 354:cpu/STM32F103/stm32f10x_tim.c ****   
 590              		.loc 1 354 15 view .LVU189
 591 0206 B1F800E0 		ldrh	lr, [r1]
 364:cpu/STM32F103/stm32f10x_tim.c ****   
 365:cpu/STM32F103/stm32f10x_tim.c ****   /* Set the Capture Compare Register value */
 366:cpu/STM32F103/stm32f10x_tim.c ****   TIMx->CCR2 = TIM_OCInitStruct->TIM_Pulse;
 367:cpu/STM32F103/stm32f10x_tim.c ****   
 368:cpu/STM32F103/stm32f10x_tim.c ****   if((*(u32*)&TIMx == TIM1_BASE) || (*(u32*)&TIMx == TIM8_BASE))
 592              		.loc 1 368 5 view .LVU190
 593 020a 1A4C     		ldr	r4, .L35
 351:cpu/STM32F103/stm32f10x_tim.c ****   
 594              		.loc 1 351 12 view .LVU191
 595 020c 120C     		lsrs	r2, r2, #16
 354:cpu/STM32F103/stm32f10x_tim.c ****   
 596              		.loc 1 354 12 view .LVU192
 597 020e 42EA0E22 		orr	r2, r2, lr, lsl #8
 366:cpu/STM32F103/stm32f10x_tim.c ****   
 598              		.loc 1 366 32 view .LVU193
 599 0212 B1F806E0 		ldrh	lr, [r1, #6]
 600              		.loc 1 368 5 view .LVU194
 601 0216 A042     		cmp	r0, r4
 345:cpu/STM32F103/stm32f10x_tim.c ****   
 602              		.loc 1 345 10 view .LVU195
 603 0218 1FFA8CFC 		uxth	ip, ip
 604              	.LVL40:
 348:cpu/STM32F103/stm32f10x_tim.c ****     
 605              		.loc 1 348 3 is_stmt 1 view .LVU196
 351:cpu/STM32F103/stm32f10x_tim.c ****   
 606              		.loc 1 351 3 view .LVU197
 354:cpu/STM32F103/stm32f10x_tim.c ****   
 607              		.loc 1 354 3 view .LVU198
 363:cpu/STM32F103/stm32f10x_tim.c ****   
 608              		.loc 1 363 11 is_stmt 0 view .LVU199
 609 021c 9BB2     		uxth	r3, r3
 354:cpu/STM32F103/stm32f10x_tim.c ****   
 610              		.loc 1 354 12 view .LVU200
 611 021e 92B2     		uxth	r2, r2
 612              	.LVL41:
 357:cpu/STM32F103/stm32f10x_tim.c **** 
 613              		.loc 1 357 3 is_stmt 1 view .LVU201
 360:cpu/STM32F103/stm32f10x_tim.c ****   
 614              		.loc 1 360 3 view .LVU202
 363:cpu/STM32F103/stm32f10x_tim.c ****   
 615              		.loc 1 363 3 view .LVU203
 366:cpu/STM32F103/stm32f10x_tim.c ****   
 616              		.loc 1 366 3 view .LVU204
 366:cpu/STM32F103/stm32f10x_tim.c ****   
 617              		.loc 1 366 14 is_stmt 0 view .LVU205
 618 0220 A0F838E0 		strh	lr, [r0, #56]	@ movhi
 619              		.loc 1 368 3 is_stmt 1 view .LVU206
 620              		.loc 1 368 5 is_stmt 0 view .LVU207
 621 0224 08D0     		beq	.L32
 622              		.loc 1 368 34 discriminator 1 view .LVU208
 623 0226 04F50064 		add	r4, r4, #2048
 624 022a A042     		cmp	r0, r4
 625 022c 04D0     		beq	.L32
 369:cpu/STM32F103/stm32f10x_tim.c ****   {
 370:cpu/STM32F103/stm32f10x_tim.c ****     assert_param(IS_TIM_OUTPUTN_STATE(TIM_OCInitStruct->TIM_OutputNState));
 371:cpu/STM32F103/stm32f10x_tim.c ****     assert_param(IS_TIM_OCN_POLARITY(TIM_OCInitStruct->TIM_OCNPolarity));
 372:cpu/STM32F103/stm32f10x_tim.c ****     assert_param(IS_TIM_OCNIDLE_STATE(TIM_OCInitStruct->TIM_OCNIdleState));
 373:cpu/STM32F103/stm32f10x_tim.c ****     assert_param(IS_TIM_OCIDLE_STATE(TIM_OCInitStruct->TIM_OCIdleState));
 374:cpu/STM32F103/stm32f10x_tim.c ****     
 375:cpu/STM32F103/stm32f10x_tim.c ****     /* Reset the Output N Polarity level */
 376:cpu/STM32F103/stm32f10x_tim.c ****     tmpccer &= CCER_CC2NP_Reset;
 377:cpu/STM32F103/stm32f10x_tim.c **** 
 378:cpu/STM32F103/stm32f10x_tim.c ****     /* Set the Output N Polarity */
 379:cpu/STM32F103/stm32f10x_tim.c ****     tmpccer |= (u16)(TIM_OCInitStruct->TIM_OCNPolarity << 4);
 380:cpu/STM32F103/stm32f10x_tim.c **** 
 381:cpu/STM32F103/stm32f10x_tim.c ****     /* Reset the Output N State */
 382:cpu/STM32F103/stm32f10x_tim.c ****     tmpccer &= CCER_CC2NE_Reset;
 383:cpu/STM32F103/stm32f10x_tim.c ****     
 384:cpu/STM32F103/stm32f10x_tim.c ****     /* Set the Output N State */
 385:cpu/STM32F103/stm32f10x_tim.c ****     tmpccer |= (u16)(TIM_OCInitStruct->TIM_OutputNState << 4);
 386:cpu/STM32F103/stm32f10x_tim.c **** 
 387:cpu/STM32F103/stm32f10x_tim.c ****     /* Reset the Ouput Compare and Output Compare N IDLE State */
 388:cpu/STM32F103/stm32f10x_tim.c ****     tmpcr2 &= CR2_OIS2_Reset;
 389:cpu/STM32F103/stm32f10x_tim.c ****     tmpcr2 &= CR2_OIS2N_Reset;
 390:cpu/STM32F103/stm32f10x_tim.c **** 
 391:cpu/STM32F103/stm32f10x_tim.c ****     /* Set the Output Idle state */
 392:cpu/STM32F103/stm32f10x_tim.c ****     tmpcr2 |= (u16)(TIM_OCInitStruct->TIM_OCIdleState << 2);
 393:cpu/STM32F103/stm32f10x_tim.c **** 
 394:cpu/STM32F103/stm32f10x_tim.c ****     /* Set the Output N Idle state */
 395:cpu/STM32F103/stm32f10x_tim.c ****     tmpcr2 |= (u16)(TIM_OCInitStruct->TIM_OCNIdleState << 2);
 396:cpu/STM32F103/stm32f10x_tim.c ****   }
 397:cpu/STM32F103/stm32f10x_tim.c **** 
 398:cpu/STM32F103/stm32f10x_tim.c ****   /* Write to TIMx CR2 */
 399:cpu/STM32F103/stm32f10x_tim.c ****   TIMx->CR2 = tmpcr2;
 626              		.loc 1 399 3 is_stmt 1 view .LVU209
 627              		.loc 1 399 13 is_stmt 0 view .LVU210
 628 022e A0F804C0 		strh	ip, [r0, #4]	@ movhi
 400:cpu/STM32F103/stm32f10x_tim.c ****   
 401:cpu/STM32F103/stm32f10x_tim.c ****   /* Write to TIMx CCMR1 */
 402:cpu/STM32F103/stm32f10x_tim.c ****   TIMx->CCMR1 = tmpccmrx;
 629              		.loc 1 402 3 is_stmt 1 view .LVU211
 630              		.loc 1 402 15 is_stmt 0 view .LVU212
 631 0232 0283     		strh	r2, [r0, #24]	@ movhi
 403:cpu/STM32F103/stm32f10x_tim.c ****   
 404:cpu/STM32F103/stm32f10x_tim.c ****   /* Write to TIMx CCER */
 405:cpu/STM32F103/stm32f10x_tim.c ****   TIMx->CCER = tmpccer;
 632              		.loc 1 405 3 is_stmt 1 view .LVU213
 633              		.loc 1 405 14 is_stmt 0 view .LVU214
 634 0234 0384     		strh	r3, [r0, #32]	@ movhi
 406:cpu/STM32F103/stm32f10x_tim.c **** }
 635              		.loc 1 406 1 view .LVU215
 636 0236 30BD     		pop	{r4, r5, pc}
 637              	.L32:
 370:cpu/STM32F103/stm32f10x_tim.c ****     assert_param(IS_TIM_OCN_POLARITY(TIM_OCInitStruct->TIM_OCNPolarity));
 638              		.loc 1 370 5 is_stmt 1 view .LVU216
 371:cpu/STM32F103/stm32f10x_tim.c ****     assert_param(IS_TIM_OCNIDLE_STATE(TIM_OCInitStruct->TIM_OCNIdleState));
 639              		.loc 1 371 5 view .LVU217
 372:cpu/STM32F103/stm32f10x_tim.c ****     assert_param(IS_TIM_OCIDLE_STATE(TIM_OCInitStruct->TIM_OCIdleState));
 640              		.loc 1 372 5 view .LVU218
 373:cpu/STM32F103/stm32f10x_tim.c ****     
 641              		.loc 1 373 5 view .LVU219
 376:cpu/STM32F103/stm32f10x_tim.c **** 
 642              		.loc 1 376 5 view .LVU220
 389:cpu/STM32F103/stm32f10x_tim.c **** 
 643              		.loc 1 389 12 is_stmt 0 view .LVU221
 644 0238 47F2FF34 		movw	r4, #29695
 382:cpu/STM32F103/stm32f10x_tim.c ****     
 645              		.loc 1 382 13 view .LVU222
 646 023c 4FF6BF7E 		movw	lr, #65471
 389:cpu/STM32F103/stm32f10x_tim.c **** 
 647              		.loc 1 389 12 view .LVU223
 648 0240 0CEA040C 		and	ip, ip, r4
 649              	.LVL42:
 379:cpu/STM32F103/stm32f10x_tim.c **** 
 650              		.loc 1 379 16 view .LVU224
 651 0244 4C89     		ldrh	r4, [r1, #10]
 376:cpu/STM32F103/stm32f10x_tim.c **** 
 652              		.loc 1 376 13 view .LVU225
 653 0246 23F08003 		bic	r3, r3, #128
 654              	.LVL43:
 379:cpu/STM32F103/stm32f10x_tim.c **** 
 655              		.loc 1 379 5 is_stmt 1 view .LVU226
 379:cpu/STM32F103/stm32f10x_tim.c **** 
 656              		.loc 1 379 13 is_stmt 0 view .LVU227
 657 024a 43EA0413 		orr	r3, r3, r4, lsl #4
 658              	.LVL44:
 382:cpu/STM32F103/stm32f10x_tim.c ****     
 659              		.loc 1 382 5 is_stmt 1 view .LVU228
 382:cpu/STM32F103/stm32f10x_tim.c ****     
 660              		.loc 1 382 13 is_stmt 0 view .LVU229
 661 024e 03EA0E0E 		and	lr, r3, lr
 662              	.LVL45:
 385:cpu/STM32F103/stm32f10x_tim.c **** 
 663              		.loc 1 385 5 is_stmt 1 view .LVU230
 395:cpu/STM32F103/stm32f10x_tim.c ****   }
 664              		.loc 1 395 15 is_stmt 0 view .LVU231
 665 0252 CC89     		ldrh	r4, [r1, #14]
 392:cpu/STM32F103/stm32f10x_tim.c **** 
 666              		.loc 1 392 15 view .LVU232
 667 0254 8B89     		ldrh	r3, [r1, #12]
 395:cpu/STM32F103/stm32f10x_tim.c ****   }
 668              		.loc 1 395 12 view .LVU233
 669 0256 2343     		orrs	r3, r3, r4
 670 0258 4CEA830C 		orr	ip, ip, r3, lsl #2
 385:cpu/STM32F103/stm32f10x_tim.c **** 
 671              		.loc 1 385 16 view .LVU234
 672 025c 8B88     		ldrh	r3, [r1, #4]
 395:cpu/STM32F103/stm32f10x_tim.c ****   }
 673              		.loc 1 395 12 view .LVU235
 674 025e 1FFA8CFC 		uxth	ip, ip
 385:cpu/STM32F103/stm32f10x_tim.c **** 
 675              		.loc 1 385 13 view .LVU236
 676 0262 4EEA0313 		orr	r3, lr, r3, lsl #4
 677 0266 9BB2     		uxth	r3, r3
 678              	.LVL46:
 388:cpu/STM32F103/stm32f10x_tim.c ****     tmpcr2 &= CR2_OIS2N_Reset;
 679              		.loc 1 388 5 is_stmt 1 view .LVU237
 389:cpu/STM32F103/stm32f10x_tim.c **** 
 680              		.loc 1 389 5 view .LVU238
 392:cpu/STM32F103/stm32f10x_tim.c **** 
 681              		.loc 1 392 5 view .LVU239
 395:cpu/STM32F103/stm32f10x_tim.c ****   }
 682              		.loc 1 395 5 view .LVU240
 399:cpu/STM32F103/stm32f10x_tim.c ****   
 683              		.loc 1 399 3 view .LVU241
 399:cpu/STM32F103/stm32f10x_tim.c ****   
 684              		.loc 1 399 13 is_stmt 0 view .LVU242
 685 0268 A0F804C0 		strh	ip, [r0, #4]	@ movhi
 402:cpu/STM32F103/stm32f10x_tim.c ****   
 686              		.loc 1 402 3 is_stmt 1 view .LVU243
 402:cpu/STM32F103/stm32f10x_tim.c ****   
 687              		.loc 1 402 15 is_stmt 0 view .LVU244
 688 026c 0283     		strh	r2, [r0, #24]	@ movhi
 405:cpu/STM32F103/stm32f10x_tim.c **** }
 689              		.loc 1 405 3 is_stmt 1 view .LVU245
 405:cpu/STM32F103/stm32f10x_tim.c **** }
 690              		.loc 1 405 14 is_stmt 0 view .LVU246
 691 026e 0384     		strh	r3, [r0, #32]	@ movhi
 692              		.loc 1 406 1 view .LVU247
 693 0270 30BD     		pop	{r4, r5, pc}
 694              	.L36:
 695 0272 00BF     		.align	2
 696              	.L35:
 697 0274 002C0140 		.word	1073818624
 698              		.cfi_endproc
 699              	.LFE3:
 701              		.align	1
 702              		.p2align 2,,3
 703              		.global	TIM_OC3Init
 704              		.syntax unified
 705              		.thumb
 706              		.thumb_func
 708              	TIM_OC3Init:
 709              	.LVL47:
 710              	.LFB4:
 407:cpu/STM32F103/stm32f10x_tim.c **** 
 408:cpu/STM32F103/stm32f10x_tim.c **** /*******************************************************************************
 409:cpu/STM32F103/stm32f10x_tim.c **** * Function Name  : TIM_OC3Init
 410:cpu/STM32F103/stm32f10x_tim.c **** * Description    : Initializes the TIMx Channel3 according to the specified
 411:cpu/STM32F103/stm32f10x_tim.c **** *                  parameters in the TIM_OCInitStruct.
 412:cpu/STM32F103/stm32f10x_tim.c **** * Input          : - TIMx: where x can be  1, 2, 3, 4, 5 or 8 to select the TIM 
 413:cpu/STM32F103/stm32f10x_tim.c **** *                    peripheral.
 414:cpu/STM32F103/stm32f10x_tim.c **** *                  - TIM_OCInitStruct: pointer to a TIM_OCInitTypeDef structure
 415:cpu/STM32F103/stm32f10x_tim.c **** *                    that contains the configuration information for the specified
 416:cpu/STM32F103/stm32f10x_tim.c **** *                    TIM peripheral.
 417:cpu/STM32F103/stm32f10x_tim.c **** * Output         : None
 418:cpu/STM32F103/stm32f10x_tim.c **** * Return         : None
 419:cpu/STM32F103/stm32f10x_tim.c **** *******************************************************************************/
 420:cpu/STM32F103/stm32f10x_tim.c **** void TIM_OC3Init(TIM_TypeDef* TIMx, TIM_OCInitTypeDef* TIM_OCInitStruct)
 421:cpu/STM32F103/stm32f10x_tim.c **** {
 711              		.loc 1 421 1 is_stmt 1 view -0
 712              		.cfi_startproc
 713              		@ args = 0, pretend = 0, frame = 0
 714              		@ frame_needed = 0, uses_anonymous_args = 0
 422:cpu/STM32F103/stm32f10x_tim.c ****   u16 tmpccmrx = 0, tmpccer = 0, tmpcr2 = 0;
 715              		.loc 1 422 3 view .LVU249
 423:cpu/STM32F103/stm32f10x_tim.c ****    
 424:cpu/STM32F103/stm32f10x_tim.c ****   /* Check the parameters */
 425:cpu/STM32F103/stm32f10x_tim.c ****   assert_param(IS_TIM_123458_PERIPH(TIMx)); 
 716              		.loc 1 425 3 view .LVU250
 426:cpu/STM32F103/stm32f10x_tim.c ****   assert_param(IS_TIM_OC_MODE(TIM_OCInitStruct->TIM_OCMode));
 717              		.loc 1 426 3 view .LVU251
 427:cpu/STM32F103/stm32f10x_tim.c ****   assert_param(IS_TIM_OUTPUT_STATE(TIM_OCInitStruct->TIM_OutputState));
 718              		.loc 1 427 3 view .LVU252
 428:cpu/STM32F103/stm32f10x_tim.c ****   assert_param(IS_TIM_OC_POLARITY(TIM_OCInitStruct->TIM_OCPolarity));   
 719              		.loc 1 428 3 view .LVU253
 429:cpu/STM32F103/stm32f10x_tim.c **** 
 430:cpu/STM32F103/stm32f10x_tim.c ****   /* Disable the Channel 2: Reset the CC2E Bit */
 431:cpu/STM32F103/stm32f10x_tim.c ****   TIMx->CCER &= CCER_CC3E_Reset;
 720              		.loc 1 431 3 view .LVU254
 721              		.loc 1 431 14 is_stmt 0 view .LVU255
 722 0278 038C     		ldrh	r3, [r0, #32]
 421:cpu/STM32F103/stm32f10x_tim.c ****   u16 tmpccmrx = 0, tmpccer = 0, tmpcr2 = 0;
 723              		.loc 1 421 1 view .LVU256
 724 027a 30B5     		push	{r4, r5, lr}
 725              	.LCFI22:
 726              		.cfi_def_cfa_offset 12
 727              		.cfi_offset 4, -12
 728              		.cfi_offset 5, -8
 729              		.cfi_offset 14, -4
 730              		.loc 1 431 14 view .LVU257
 731 027c 23F48073 		bic	r3, r3, #256
 732 0280 1B04     		lsls	r3, r3, #16
 733 0282 1B0C     		lsrs	r3, r3, #16
 734 0284 0384     		strh	r3, [r0, #32]	@ movhi
 432:cpu/STM32F103/stm32f10x_tim.c ****   
 433:cpu/STM32F103/stm32f10x_tim.c ****   /* Get the TIMx CCER register value */
 434:cpu/STM32F103/stm32f10x_tim.c ****   tmpccer = TIMx->CCER;
 735              		.loc 1 434 3 is_stmt 1 view .LVU258
 736              		.loc 1 434 11 is_stmt 0 view .LVU259
 737 0286 038C     		ldrh	r3, [r0, #32]
 738              	.LVL48:
 435:cpu/STM32F103/stm32f10x_tim.c **** 
 436:cpu/STM32F103/stm32f10x_tim.c ****   /* Get the TIMx CR2 register value */
 437:cpu/STM32F103/stm32f10x_tim.c ****   tmpcr2 =  TIMx->CR2;
 739              		.loc 1 437 3 is_stmt 1 view .LVU260
 438:cpu/STM32F103/stm32f10x_tim.c ****   
 439:cpu/STM32F103/stm32f10x_tim.c ****   /* Get the TIMx CCMR2 register value */
 440:cpu/STM32F103/stm32f10x_tim.c ****   tmpccmrx = TIMx->CCMR2;
 441:cpu/STM32F103/stm32f10x_tim.c ****     
 442:cpu/STM32F103/stm32f10x_tim.c ****   /* Reset the Output Compare Mode Bits */
 443:cpu/STM32F103/stm32f10x_tim.c ****   tmpccmrx &= CCMR_OC13M_Mask;
 444:cpu/STM32F103/stm32f10x_tim.c ****   
 445:cpu/STM32F103/stm32f10x_tim.c ****   /* Select the Output Compare Mode */
 446:cpu/STM32F103/stm32f10x_tim.c ****   tmpccmrx |= TIM_OCInitStruct->TIM_OCMode;
 447:cpu/STM32F103/stm32f10x_tim.c ****   
 448:cpu/STM32F103/stm32f10x_tim.c ****   /* Reset the Output Polarity level */
 449:cpu/STM32F103/stm32f10x_tim.c ****   tmpccer &= CCER_CC3P_Reset;
 450:cpu/STM32F103/stm32f10x_tim.c **** 
 451:cpu/STM32F103/stm32f10x_tim.c ****   /* Set the Output Compare Polarity */
 452:cpu/STM32F103/stm32f10x_tim.c ****   tmpccer |= (u16)(TIM_OCInitStruct->TIM_OCPolarity << 8);
 740              		.loc 1 452 14 is_stmt 0 view .LVU261
 741 0288 B1F808E0 		ldrh	lr, [r1, #8]
 437:cpu/STM32F103/stm32f10x_tim.c ****   
 742              		.loc 1 437 10 view .LVU262
 743 028c B0F804C0 		ldrh	ip, [r0, #4]
 453:cpu/STM32F103/stm32f10x_tim.c ****   
 454:cpu/STM32F103/stm32f10x_tim.c ****   /* Set the Output State */
 455:cpu/STM32F103/stm32f10x_tim.c ****   tmpccer |= (u16)(TIM_OCInitStruct->TIM_OutputState << 8);
 744              		.loc 1 455 14 view .LVU263
 745 0290 4D88     		ldrh	r5, [r1, #2]
 440:cpu/STM32F103/stm32f10x_tim.c ****     
 746              		.loc 1 440 12 view .LVU264
 747 0292 828B     		ldrh	r2, [r0, #28]
 449:cpu/STM32F103/stm32f10x_tim.c **** 
 748              		.loc 1 449 11 view .LVU265
 749 0294 23F40073 		bic	r3, r3, #512
 750              	.LVL49:
 449:cpu/STM32F103/stm32f10x_tim.c **** 
 751              		.loc 1 449 11 view .LVU266
 752 0298 1B04     		lsls	r3, r3, #16
 753              		.loc 1 455 11 view .LVU267
 754 029a 4EEA050E 		orr	lr, lr, r5
 449:cpu/STM32F103/stm32f10x_tim.c **** 
 755              		.loc 1 449 11 view .LVU268
 756 029e 1B0C     		lsrs	r3, r3, #16
 443:cpu/STM32F103/stm32f10x_tim.c ****   
 757              		.loc 1 443 12 view .LVU269
 758 02a0 22F07002 		bic	r2, r2, #112
 759              		.loc 1 455 11 view .LVU270
 760 02a4 43EA0E23 		orr	r3, r3, lr, lsl #8
 443:cpu/STM32F103/stm32f10x_tim.c ****   
 761              		.loc 1 443 12 view .LVU271
 762 02a8 1204     		lsls	r2, r2, #16
 446:cpu/STM32F103/stm32f10x_tim.c ****   
 763              		.loc 1 446 12 view .LVU272
 764 02aa B1F800E0 		ldrh	lr, [r1]
 456:cpu/STM32F103/stm32f10x_tim.c ****   
 457:cpu/STM32F103/stm32f10x_tim.c ****   /* Set the Capture Compare Register value */
 458:cpu/STM32F103/stm32f10x_tim.c ****   TIMx->CCR3 = TIM_OCInitStruct->TIM_Pulse;
 459:cpu/STM32F103/stm32f10x_tim.c ****   
 460:cpu/STM32F103/stm32f10x_tim.c ****   if((*(u32*)&TIMx == TIM1_BASE) || (*(u32*)&TIMx == TIM8_BASE))
 765              		.loc 1 460 5 view .LVU273
 766 02ae 194C     		ldr	r4, .L41
 443:cpu/STM32F103/stm32f10x_tim.c ****   
 767              		.loc 1 443 12 view .LVU274
 768 02b0 120C     		lsrs	r2, r2, #16
 446:cpu/STM32F103/stm32f10x_tim.c ****   
 769              		.loc 1 446 12 view .LVU275
 770 02b2 42EA0E02 		orr	r2, r2, lr
 458:cpu/STM32F103/stm32f10x_tim.c ****   
 771              		.loc 1 458 32 view .LVU276
 772 02b6 B1F806E0 		ldrh	lr, [r1, #6]
 773              		.loc 1 460 5 view .LVU277
 774 02ba A042     		cmp	r0, r4
 437:cpu/STM32F103/stm32f10x_tim.c ****   
 775              		.loc 1 437 10 view .LVU278
 776 02bc 1FFA8CFC 		uxth	ip, ip
 777              	.LVL50:
 440:cpu/STM32F103/stm32f10x_tim.c ****     
 778              		.loc 1 440 3 is_stmt 1 view .LVU279
 443:cpu/STM32F103/stm32f10x_tim.c ****   
 779              		.loc 1 443 3 view .LVU280
 446:cpu/STM32F103/stm32f10x_tim.c ****   
 780              		.loc 1 446 3 view .LVU281
 449:cpu/STM32F103/stm32f10x_tim.c **** 
 781              		.loc 1 449 3 view .LVU282
 452:cpu/STM32F103/stm32f10x_tim.c ****   
 782              		.loc 1 452 3 view .LVU283
 455:cpu/STM32F103/stm32f10x_tim.c ****   
 783              		.loc 1 455 3 view .LVU284
 455:cpu/STM32F103/stm32f10x_tim.c ****   
 784              		.loc 1 455 11 is_stmt 0 view .LVU285
 785 02c0 9BB2     		uxth	r3, r3
 786              	.LVL51:
 458:cpu/STM32F103/stm32f10x_tim.c ****   
 787              		.loc 1 458 3 is_stmt 1 view .LVU286
 458:cpu/STM32F103/stm32f10x_tim.c ****   
 788              		.loc 1 458 14 is_stmt 0 view .LVU287
 789 02c2 A0F83CE0 		strh	lr, [r0, #60]	@ movhi
 790              		.loc 1 460 3 is_stmt 1 view .LVU288
 791              		.loc 1 460 5 is_stmt 0 view .LVU289
 792 02c6 08D0     		beq	.L38
 793              		.loc 1 460 34 discriminator 1 view .LVU290
 794 02c8 04F50064 		add	r4, r4, #2048
 795 02cc A042     		cmp	r0, r4
 796 02ce 04D0     		beq	.L38
 461:cpu/STM32F103/stm32f10x_tim.c ****   {
 462:cpu/STM32F103/stm32f10x_tim.c ****     assert_param(IS_TIM_OUTPUTN_STATE(TIM_OCInitStruct->TIM_OutputNState));
 463:cpu/STM32F103/stm32f10x_tim.c ****     assert_param(IS_TIM_OCN_POLARITY(TIM_OCInitStruct->TIM_OCNPolarity));
 464:cpu/STM32F103/stm32f10x_tim.c ****     assert_param(IS_TIM_OCNIDLE_STATE(TIM_OCInitStruct->TIM_OCNIdleState));
 465:cpu/STM32F103/stm32f10x_tim.c ****     assert_param(IS_TIM_OCIDLE_STATE(TIM_OCInitStruct->TIM_OCIdleState));
 466:cpu/STM32F103/stm32f10x_tim.c ****     
 467:cpu/STM32F103/stm32f10x_tim.c ****     /* Reset the Output N Polarity level */
 468:cpu/STM32F103/stm32f10x_tim.c ****     tmpccer &= CCER_CC3NP_Reset;
 469:cpu/STM32F103/stm32f10x_tim.c **** 
 470:cpu/STM32F103/stm32f10x_tim.c ****     /* Set the Output N Polarity */
 471:cpu/STM32F103/stm32f10x_tim.c ****     tmpccer |= (u16)(TIM_OCInitStruct->TIM_OCNPolarity << 8);
 472:cpu/STM32F103/stm32f10x_tim.c **** 
 473:cpu/STM32F103/stm32f10x_tim.c ****     /* Reset the Output N State */
 474:cpu/STM32F103/stm32f10x_tim.c ****     tmpccer &= CCER_CC3NE_Reset;
 475:cpu/STM32F103/stm32f10x_tim.c ****     
 476:cpu/STM32F103/stm32f10x_tim.c ****     /* Set the Output N State */
 477:cpu/STM32F103/stm32f10x_tim.c ****     tmpccer |= (u16)(TIM_OCInitStruct->TIM_OutputNState << 8);
 478:cpu/STM32F103/stm32f10x_tim.c **** 
 479:cpu/STM32F103/stm32f10x_tim.c ****     /* Reset the Ouput Compare and Output Compare N IDLE State */
 480:cpu/STM32F103/stm32f10x_tim.c ****     tmpcr2 &= CR2_OIS3_Reset;
 481:cpu/STM32F103/stm32f10x_tim.c ****     tmpcr2 &= CR2_OIS3N_Reset;
 482:cpu/STM32F103/stm32f10x_tim.c **** 
 483:cpu/STM32F103/stm32f10x_tim.c ****     /* Set the Output Idle state */
 484:cpu/STM32F103/stm32f10x_tim.c ****     tmpcr2 |= (u16)(TIM_OCInitStruct->TIM_OCIdleState << 4);
 485:cpu/STM32F103/stm32f10x_tim.c **** 
 486:cpu/STM32F103/stm32f10x_tim.c ****     /* Set the Output N Idle state */
 487:cpu/STM32F103/stm32f10x_tim.c ****     tmpcr2 |= (u16)(TIM_OCInitStruct->TIM_OCNIdleState << 4);
 488:cpu/STM32F103/stm32f10x_tim.c ****   }
 489:cpu/STM32F103/stm32f10x_tim.c **** 
 490:cpu/STM32F103/stm32f10x_tim.c ****   /* Write to TIMx CR2 */
 491:cpu/STM32F103/stm32f10x_tim.c ****   TIMx->CR2 = tmpcr2;
 797              		.loc 1 491 3 is_stmt 1 view .LVU291
 798              		.loc 1 491 13 is_stmt 0 view .LVU292
 799 02d0 A0F804C0 		strh	ip, [r0, #4]	@ movhi
 492:cpu/STM32F103/stm32f10x_tim.c ****   
 493:cpu/STM32F103/stm32f10x_tim.c ****   /* Write to TIMx CCMR2 */
 494:cpu/STM32F103/stm32f10x_tim.c ****   TIMx->CCMR2 = tmpccmrx;
 800              		.loc 1 494 3 is_stmt 1 view .LVU293
 801              		.loc 1 494 15 is_stmt 0 view .LVU294
 802 02d4 8283     		strh	r2, [r0, #28]	@ movhi
 495:cpu/STM32F103/stm32f10x_tim.c ****   
 496:cpu/STM32F103/stm32f10x_tim.c ****   /* Write to TIMx CCER */
 497:cpu/STM32F103/stm32f10x_tim.c ****   TIMx->CCER = tmpccer;
 803              		.loc 1 497 3 is_stmt 1 view .LVU295
 804              		.loc 1 497 14 is_stmt 0 view .LVU296
 805 02d6 0384     		strh	r3, [r0, #32]	@ movhi
 498:cpu/STM32F103/stm32f10x_tim.c **** }
 806              		.loc 1 498 1 view .LVU297
 807 02d8 30BD     		pop	{r4, r5, pc}
 808              	.L38:
 462:cpu/STM32F103/stm32f10x_tim.c ****     assert_param(IS_TIM_OCN_POLARITY(TIM_OCInitStruct->TIM_OCNPolarity));
 809              		.loc 1 462 5 is_stmt 1 view .LVU298
 463:cpu/STM32F103/stm32f10x_tim.c ****     assert_param(IS_TIM_OCNIDLE_STATE(TIM_OCInitStruct->TIM_OCNIdleState));
 810              		.loc 1 463 5 view .LVU299
 464:cpu/STM32F103/stm32f10x_tim.c ****     assert_param(IS_TIM_OCIDLE_STATE(TIM_OCInitStruct->TIM_OCIdleState));
 811              		.loc 1 464 5 view .LVU300
 465:cpu/STM32F103/stm32f10x_tim.c ****     
 812              		.loc 1 465 5 view .LVU301
 468:cpu/STM32F103/stm32f10x_tim.c **** 
 813              		.loc 1 468 5 view .LVU302
 481:cpu/STM32F103/stm32f10x_tim.c **** 
 814              		.loc 1 481 12 is_stmt 0 view .LVU303
 815 02da 44F6FF74 		movw	r4, #20479
 474:cpu/STM32F103/stm32f10x_tim.c ****     
 816              		.loc 1 474 13 view .LVU304
 817 02de 4FF6FF3E 		movw	lr, #64511
 481:cpu/STM32F103/stm32f10x_tim.c **** 
 818              		.loc 1 481 12 view .LVU305
 819 02e2 0CEA040C 		and	ip, ip, r4
 820              	.LVL52:
 471:cpu/STM32F103/stm32f10x_tim.c **** 
 821              		.loc 1 471 16 view .LVU306
 822 02e6 4C89     		ldrh	r4, [r1, #10]
 468:cpu/STM32F103/stm32f10x_tim.c **** 
 823              		.loc 1 468 13 view .LVU307
 824 02e8 23F40063 		bic	r3, r3, #2048
 825              	.LVL53:
 471:cpu/STM32F103/stm32f10x_tim.c **** 
 826              		.loc 1 471 5 is_stmt 1 view .LVU308
 471:cpu/STM32F103/stm32f10x_tim.c **** 
 827              		.loc 1 471 13 is_stmt 0 view .LVU309
 828 02ec 43EA0423 		orr	r3, r3, r4, lsl #8
 829              	.LVL54:
 474:cpu/STM32F103/stm32f10x_tim.c ****     
 830              		.loc 1 474 5 is_stmt 1 view .LVU310
 474:cpu/STM32F103/stm32f10x_tim.c ****     
 831              		.loc 1 474 13 is_stmt 0 view .LVU311
 832 02f0 03EA0E0E 		and	lr, r3, lr
 833              	.LVL55:
 477:cpu/STM32F103/stm32f10x_tim.c **** 
 834              		.loc 1 477 5 is_stmt 1 view .LVU312
 487:cpu/STM32F103/stm32f10x_tim.c ****   }
 835              		.loc 1 487 15 is_stmt 0 view .LVU313
 836 02f4 CC89     		ldrh	r4, [r1, #14]
 484:cpu/STM32F103/stm32f10x_tim.c **** 
 837              		.loc 1 484 15 view .LVU314
 838 02f6 8B89     		ldrh	r3, [r1, #12]
 487:cpu/STM32F103/stm32f10x_tim.c ****   }
 839              		.loc 1 487 12 view .LVU315
 840 02f8 2343     		orrs	r3, r3, r4
 841 02fa 4CEA031C 		orr	ip, ip, r3, lsl #4
 477:cpu/STM32F103/stm32f10x_tim.c **** 
 842              		.loc 1 477 16 view .LVU316
 843 02fe 8B88     		ldrh	r3, [r1, #4]
 487:cpu/STM32F103/stm32f10x_tim.c ****   }
 844              		.loc 1 487 12 view .LVU317
 845 0300 1FFA8CFC 		uxth	ip, ip
 477:cpu/STM32F103/stm32f10x_tim.c **** 
 846              		.loc 1 477 13 view .LVU318
 847 0304 4EEA0323 		orr	r3, lr, r3, lsl #8
 848 0308 9BB2     		uxth	r3, r3
 849              	.LVL56:
 480:cpu/STM32F103/stm32f10x_tim.c ****     tmpcr2 &= CR2_OIS3N_Reset;
 850              		.loc 1 480 5 is_stmt 1 view .LVU319
 481:cpu/STM32F103/stm32f10x_tim.c **** 
 851              		.loc 1 481 5 view .LVU320
 484:cpu/STM32F103/stm32f10x_tim.c **** 
 852              		.loc 1 484 5 view .LVU321
 487:cpu/STM32F103/stm32f10x_tim.c ****   }
 853              		.loc 1 487 5 view .LVU322
 491:cpu/STM32F103/stm32f10x_tim.c ****   
 854              		.loc 1 491 3 view .LVU323
 491:cpu/STM32F103/stm32f10x_tim.c ****   
 855              		.loc 1 491 13 is_stmt 0 view .LVU324
 856 030a A0F804C0 		strh	ip, [r0, #4]	@ movhi
 494:cpu/STM32F103/stm32f10x_tim.c ****   
 857              		.loc 1 494 3 is_stmt 1 view .LVU325
 494:cpu/STM32F103/stm32f10x_tim.c ****   
 858              		.loc 1 494 15 is_stmt 0 view .LVU326
 859 030e 8283     		strh	r2, [r0, #28]	@ movhi
 497:cpu/STM32F103/stm32f10x_tim.c **** }
 860              		.loc 1 497 3 is_stmt 1 view .LVU327
 497:cpu/STM32F103/stm32f10x_tim.c **** }
 861              		.loc 1 497 14 is_stmt 0 view .LVU328
 862 0310 0384     		strh	r3, [r0, #32]	@ movhi
 863              		.loc 1 498 1 view .LVU329
 864 0312 30BD     		pop	{r4, r5, pc}
 865              	.L42:
 866              		.align	2
 867              	.L41:
 868 0314 002C0140 		.word	1073818624
 869              		.cfi_endproc
 870              	.LFE4:
 872              		.align	1
 873              		.p2align 2,,3
 874              		.global	TIM_OC4Init
 875              		.syntax unified
 876              		.thumb
 877              		.thumb_func
 879              	TIM_OC4Init:
 880              	.LVL57:
 881              	.LFB5:
 499:cpu/STM32F103/stm32f10x_tim.c **** 
 500:cpu/STM32F103/stm32f10x_tim.c **** /*******************************************************************************
 501:cpu/STM32F103/stm32f10x_tim.c **** * Function Name  : TIM_OC4Init
 502:cpu/STM32F103/stm32f10x_tim.c **** * Description    : Initializes the TIMx Channel4 according to the specified
 503:cpu/STM32F103/stm32f10x_tim.c **** *                  parameters in the TIM_OCInitStruct.
 504:cpu/STM32F103/stm32f10x_tim.c **** * Input          : - TIMx: where x can be  1, 2, 3, 4, 5 or 8 to select the TIM 
 505:cpu/STM32F103/stm32f10x_tim.c **** *                    peripheral.
 506:cpu/STM32F103/stm32f10x_tim.c **** *                  - TIM_OCInitStruct: pointer to a TIM_OCInitTypeDef structure
 507:cpu/STM32F103/stm32f10x_tim.c **** *                    that contains the configuration information for the specified
 508:cpu/STM32F103/stm32f10x_tim.c **** *                    TIM peripheral.
 509:cpu/STM32F103/stm32f10x_tim.c **** * Output         : None
 510:cpu/STM32F103/stm32f10x_tim.c **** * Return         : None
 511:cpu/STM32F103/stm32f10x_tim.c **** *******************************************************************************/
 512:cpu/STM32F103/stm32f10x_tim.c **** void TIM_OC4Init(TIM_TypeDef* TIMx, TIM_OCInitTypeDef* TIM_OCInitStruct)
 513:cpu/STM32F103/stm32f10x_tim.c **** {
 882              		.loc 1 513 1 is_stmt 1 view -0
 883              		.cfi_startproc
 884              		@ args = 0, pretend = 0, frame = 0
 885              		@ frame_needed = 0, uses_anonymous_args = 0
 514:cpu/STM32F103/stm32f10x_tim.c ****   u16 tmpccmrx = 0, tmpccer = 0, tmpcr2 = 0;
 886              		.loc 1 514 3 view .LVU331
 515:cpu/STM32F103/stm32f10x_tim.c ****    
 516:cpu/STM32F103/stm32f10x_tim.c ****   /* Check the parameters */
 517:cpu/STM32F103/stm32f10x_tim.c ****   assert_param(IS_TIM_123458_PERIPH(TIMx)); 
 887              		.loc 1 517 3 view .LVU332
 518:cpu/STM32F103/stm32f10x_tim.c ****   assert_param(IS_TIM_OC_MODE(TIM_OCInitStruct->TIM_OCMode));
 888              		.loc 1 518 3 view .LVU333
 519:cpu/STM32F103/stm32f10x_tim.c ****   assert_param(IS_TIM_OUTPUT_STATE(TIM_OCInitStruct->TIM_OutputState));
 889              		.loc 1 519 3 view .LVU334
 520:cpu/STM32F103/stm32f10x_tim.c ****   assert_param(IS_TIM_OC_POLARITY(TIM_OCInitStruct->TIM_OCPolarity));   
 890              		.loc 1 520 3 view .LVU335
 521:cpu/STM32F103/stm32f10x_tim.c **** 
 522:cpu/STM32F103/stm32f10x_tim.c ****   /* Disable the Channel 2: Reset the CC4E Bit */
 523:cpu/STM32F103/stm32f10x_tim.c ****   TIMx->CCER &= CCER_CC4E_Reset;
 891              		.loc 1 523 3 view .LVU336
 892              		.loc 1 523 14 is_stmt 0 view .LVU337
 893 0318 038C     		ldrh	r3, [r0, #32]
 513:cpu/STM32F103/stm32f10x_tim.c ****   u16 tmpccmrx = 0, tmpccer = 0, tmpcr2 = 0;
 894              		.loc 1 513 1 view .LVU338
 895 031a 30B5     		push	{r4, r5, lr}
 896              	.LCFI23:
 897              		.cfi_def_cfa_offset 12
 898              		.cfi_offset 4, -12
 899              		.cfi_offset 5, -8
 900              		.cfi_offset 14, -4
 901              		.loc 1 523 14 view .LVU339
 902 031c 23F48053 		bic	r3, r3, #4096
 903 0320 1B04     		lsls	r3, r3, #16
 904 0322 1B0C     		lsrs	r3, r3, #16
 905 0324 0384     		strh	r3, [r0, #32]	@ movhi
 524:cpu/STM32F103/stm32f10x_tim.c ****   
 525:cpu/STM32F103/stm32f10x_tim.c ****   /* Get the TIMx CCER register value */
 526:cpu/STM32F103/stm32f10x_tim.c ****   tmpccer = TIMx->CCER;
 906              		.loc 1 526 3 is_stmt 1 view .LVU340
 907              		.loc 1 526 11 is_stmt 0 view .LVU341
 908 0326 038C     		ldrh	r3, [r0, #32]
 909              	.LVL58:
 527:cpu/STM32F103/stm32f10x_tim.c **** 
 528:cpu/STM32F103/stm32f10x_tim.c ****   /* Get the TIMx CR2 register value */
 529:cpu/STM32F103/stm32f10x_tim.c ****   tmpcr2 =  TIMx->CR2;
 910              		.loc 1 529 3 is_stmt 1 view .LVU342
 530:cpu/STM32F103/stm32f10x_tim.c ****   
 531:cpu/STM32F103/stm32f10x_tim.c ****   /* Get the TIMx CCMR2 register value */
 532:cpu/STM32F103/stm32f10x_tim.c ****   tmpccmrx = TIMx->CCMR2;
 533:cpu/STM32F103/stm32f10x_tim.c ****     
 534:cpu/STM32F103/stm32f10x_tim.c ****   /* Reset the Output Compare Mode Bits */
 535:cpu/STM32F103/stm32f10x_tim.c ****   tmpccmrx &= CCMR_OC24M_Mask;
 536:cpu/STM32F103/stm32f10x_tim.c ****   
 537:cpu/STM32F103/stm32f10x_tim.c ****   /* Select the Output Compare Mode */
 538:cpu/STM32F103/stm32f10x_tim.c ****   tmpccmrx |= (u16)(TIM_OCInitStruct->TIM_OCMode << 8);
 539:cpu/STM32F103/stm32f10x_tim.c ****   
 540:cpu/STM32F103/stm32f10x_tim.c ****   /* Reset the Output Polarity level */
 541:cpu/STM32F103/stm32f10x_tim.c ****   tmpccer &= CCER_CC4P_Reset;
 542:cpu/STM32F103/stm32f10x_tim.c **** 
 543:cpu/STM32F103/stm32f10x_tim.c ****   /* Set the Output Compare Polarity */
 544:cpu/STM32F103/stm32f10x_tim.c ****   tmpccer |= (u16)(TIM_OCInitStruct->TIM_OCPolarity << 12);
 911              		.loc 1 544 14 is_stmt 0 view .LVU343
 912 0328 B1F808E0 		ldrh	lr, [r1, #8]
 529:cpu/STM32F103/stm32f10x_tim.c ****   
 913              		.loc 1 529 10 view .LVU344
 914 032c B0F804C0 		ldrh	ip, [r0, #4]
 545:cpu/STM32F103/stm32f10x_tim.c ****   
 546:cpu/STM32F103/stm32f10x_tim.c ****   /* Set the Output State */
 547:cpu/STM32F103/stm32f10x_tim.c ****   tmpccer |= (u16)(TIM_OCInitStruct->TIM_OutputState << 12);
 915              		.loc 1 547 14 view .LVU345
 916 0330 4D88     		ldrh	r5, [r1, #2]
 532:cpu/STM32F103/stm32f10x_tim.c ****     
 917              		.loc 1 532 12 view .LVU346
 918 0332 828B     		ldrh	r2, [r0, #28]
 541:cpu/STM32F103/stm32f10x_tim.c **** 
 919              		.loc 1 541 11 view .LVU347
 920 0334 23F40053 		bic	r3, r3, #8192
 921              	.LVL59:
 541:cpu/STM32F103/stm32f10x_tim.c **** 
 922              		.loc 1 541 11 view .LVU348
 923 0338 1B04     		lsls	r3, r3, #16
 924              		.loc 1 547 11 view .LVU349
 925 033a 4EEA050E 		orr	lr, lr, r5
 541:cpu/STM32F103/stm32f10x_tim.c **** 
 926              		.loc 1 541 11 view .LVU350
 927 033e 1B0C     		lsrs	r3, r3, #16
 535:cpu/STM32F103/stm32f10x_tim.c ****   
 928              		.loc 1 535 12 view .LVU351
 929 0340 22F4E042 		bic	r2, r2, #28672
 930              		.loc 1 547 11 view .LVU352
 931 0344 43EA0E33 		orr	r3, r3, lr, lsl #12
 535:cpu/STM32F103/stm32f10x_tim.c ****   
 932              		.loc 1 535 12 view .LVU353
 933 0348 1204     		lsls	r2, r2, #16
 538:cpu/STM32F103/stm32f10x_tim.c ****   
 934              		.loc 1 538 15 view .LVU354
 935 034a B1F800E0 		ldrh	lr, [r1]
 548:cpu/STM32F103/stm32f10x_tim.c ****   
 549:cpu/STM32F103/stm32f10x_tim.c ****   /* Set the Capture Compare Register value */
 550:cpu/STM32F103/stm32f10x_tim.c ****   TIMx->CCR4 = TIM_OCInitStruct->TIM_Pulse;
 551:cpu/STM32F103/stm32f10x_tim.c ****   
 552:cpu/STM32F103/stm32f10x_tim.c ****   if((*(u32*)&TIMx == TIM1_BASE) || (*(u32*)&TIMx == TIM8_BASE))
 936              		.loc 1 552 5 view .LVU355
 937 034e 114C     		ldr	r4, .L47
 535:cpu/STM32F103/stm32f10x_tim.c ****   
 938              		.loc 1 535 12 view .LVU356
 939 0350 120C     		lsrs	r2, r2, #16
 538:cpu/STM32F103/stm32f10x_tim.c ****   
 940              		.loc 1 538 12 view .LVU357
 941 0352 42EA0E22 		orr	r2, r2, lr, lsl #8
 550:cpu/STM32F103/stm32f10x_tim.c ****   
 942              		.loc 1 550 32 view .LVU358
 943 0356 B1F806E0 		ldrh	lr, [r1, #6]
 944              		.loc 1 552 5 view .LVU359
 945 035a A042     		cmp	r0, r4
 529:cpu/STM32F103/stm32f10x_tim.c ****   
 946              		.loc 1 529 10 view .LVU360
 947 035c 1FFA8CFC 		uxth	ip, ip
 948              	.LVL60:
 532:cpu/STM32F103/stm32f10x_tim.c ****     
 949              		.loc 1 532 3 is_stmt 1 view .LVU361
 535:cpu/STM32F103/stm32f10x_tim.c ****   
 950              		.loc 1 535 3 view .LVU362
 538:cpu/STM32F103/stm32f10x_tim.c ****   
 951              		.loc 1 538 3 view .LVU363
 547:cpu/STM32F103/stm32f10x_tim.c ****   
 952              		.loc 1 547 11 is_stmt 0 view .LVU364
 953 0360 9BB2     		uxth	r3, r3
 538:cpu/STM32F103/stm32f10x_tim.c ****   
 954              		.loc 1 538 12 view .LVU365
 955 0362 92B2     		uxth	r2, r2
 956              	.LVL61:
 541:cpu/STM32F103/stm32f10x_tim.c **** 
 957              		.loc 1 541 3 is_stmt 1 view .LVU366
 544:cpu/STM32F103/stm32f10x_tim.c ****   
 958              		.loc 1 544 3 view .LVU367
 547:cpu/STM32F103/stm32f10x_tim.c ****   
 959              		.loc 1 547 3 view .LVU368
 550:cpu/STM32F103/stm32f10x_tim.c ****   
 960              		.loc 1 550 3 view .LVU369
 550:cpu/STM32F103/stm32f10x_tim.c ****   
 961              		.loc 1 550 14 is_stmt 0 view .LVU370
 962 0364 A0F840E0 		strh	lr, [r0, #64]	@ movhi
 963              		.loc 1 552 3 is_stmt 1 view .LVU371
 964              		.loc 1 552 5 is_stmt 0 view .LVU372
 965 0368 08D0     		beq	.L44
 966              		.loc 1 552 34 discriminator 1 view .LVU373
 967 036a 04F50064 		add	r4, r4, #2048
 968 036e A042     		cmp	r0, r4
 969 0370 04D0     		beq	.L44
 553:cpu/STM32F103/stm32f10x_tim.c ****   {
 554:cpu/STM32F103/stm32f10x_tim.c ****     assert_param(IS_TIM_OCIDLE_STATE(TIM_OCInitStruct->TIM_OCIdleState));
 555:cpu/STM32F103/stm32f10x_tim.c **** 
 556:cpu/STM32F103/stm32f10x_tim.c ****     /* Reset the Ouput Compare IDLE State */
 557:cpu/STM32F103/stm32f10x_tim.c ****     tmpcr2 &= CR2_OIS4_Reset;
 558:cpu/STM32F103/stm32f10x_tim.c **** 
 559:cpu/STM32F103/stm32f10x_tim.c ****     /* Set the Output Idle state */
 560:cpu/STM32F103/stm32f10x_tim.c ****     tmpcr2 |= (u16)(TIM_OCInitStruct->TIM_OCIdleState << 6);
 561:cpu/STM32F103/stm32f10x_tim.c ****   }
 562:cpu/STM32F103/stm32f10x_tim.c **** 
 563:cpu/STM32F103/stm32f10x_tim.c ****   /* Write to TIMx CR2 */
 564:cpu/STM32F103/stm32f10x_tim.c ****   TIMx->CR2 = tmpcr2;
 970              		.loc 1 564 3 is_stmt 1 view .LVU374
 971              		.loc 1 564 13 is_stmt 0 view .LVU375
 972 0372 A0F804C0 		strh	ip, [r0, #4]	@ movhi
 565:cpu/STM32F103/stm32f10x_tim.c ****   
 566:cpu/STM32F103/stm32f10x_tim.c ****   /* Write to TIMx CCMR2 */  
 567:cpu/STM32F103/stm32f10x_tim.c ****   TIMx->CCMR2 = tmpccmrx;
 973              		.loc 1 567 3 is_stmt 1 view .LVU376
 974              		.loc 1 567 15 is_stmt 0 view .LVU377
 975 0376 8283     		strh	r2, [r0, #28]	@ movhi
 568:cpu/STM32F103/stm32f10x_tim.c ****   
 569:cpu/STM32F103/stm32f10x_tim.c ****   /* Write to TIMx CCER */
 570:cpu/STM32F103/stm32f10x_tim.c ****   TIMx->CCER = tmpccer;
 976              		.loc 1 570 3 is_stmt 1 view .LVU378
 977              		.loc 1 570 14 is_stmt 0 view .LVU379
 978 0378 0384     		strh	r3, [r0, #32]	@ movhi
 571:cpu/STM32F103/stm32f10x_tim.c **** }
 979              		.loc 1 571 1 view .LVU380
 980 037a 30BD     		pop	{r4, r5, pc}
 981              	.L44:
 554:cpu/STM32F103/stm32f10x_tim.c **** 
 982              		.loc 1 554 5 is_stmt 1 view .LVU381
 557:cpu/STM32F103/stm32f10x_tim.c **** 
 983              		.loc 1 557 5 view .LVU382
 560:cpu/STM32F103/stm32f10x_tim.c ****   }
 984              		.loc 1 560 15 is_stmt 0 view .LVU383
 985 037c 8989     		ldrh	r1, [r1, #12]
 986              	.LVL62:
 557:cpu/STM32F103/stm32f10x_tim.c **** 
 987              		.loc 1 557 12 view .LVU384
 988 037e CCF30D0C 		ubfx	ip, ip, #0, #14
 989              	.LVL63:
 560:cpu/STM32F103/stm32f10x_tim.c ****   }
 990              		.loc 1 560 5 is_stmt 1 view .LVU385
 560:cpu/STM32F103/stm32f10x_tim.c ****   }
 991              		.loc 1 560 12 is_stmt 0 view .LVU386
 992 0382 4CEA811C 		orr	ip, ip, r1, lsl #6
 993              	.LVL64:
 560:cpu/STM32F103/stm32f10x_tim.c ****   }
 994              		.loc 1 560 12 view .LVU387
 995 0386 1FFA8CFC 		uxth	ip, ip
 996              	.LVL65:
 564:cpu/STM32F103/stm32f10x_tim.c ****   
 997              		.loc 1 564 3 is_stmt 1 view .LVU388
 564:cpu/STM32F103/stm32f10x_tim.c ****   
 998              		.loc 1 564 13 is_stmt 0 view .LVU389
 999 038a A0F804C0 		strh	ip, [r0, #4]	@ movhi
 567:cpu/STM32F103/stm32f10x_tim.c ****   
 1000              		.loc 1 567 3 is_stmt 1 view .LVU390
 567:cpu/STM32F103/stm32f10x_tim.c ****   
 1001              		.loc 1 567 15 is_stmt 0 view .LVU391
 1002 038e 8283     		strh	r2, [r0, #28]	@ movhi
 570:cpu/STM32F103/stm32f10x_tim.c **** }
 1003              		.loc 1 570 3 is_stmt 1 view .LVU392
 570:cpu/STM32F103/stm32f10x_tim.c **** }
 1004              		.loc 1 570 14 is_stmt 0 view .LVU393
 1005 0390 0384     		strh	r3, [r0, #32]	@ movhi
 1006              		.loc 1 571 1 view .LVU394
 1007 0392 30BD     		pop	{r4, r5, pc}
 1008              	.L48:
 1009              		.align	2
 1010              	.L47:
 1011 0394 002C0140 		.word	1073818624
 1012              		.cfi_endproc
 1013              	.LFE5:
 1015              		.align	1
 1016              		.p2align 2,,3
 1017              		.global	TIM_ICInit
 1018              		.syntax unified
 1019              		.thumb
 1020              		.thumb_func
 1022              	TIM_ICInit:
 1023              	.LVL66:
 1024              	.LFB6:
 572:cpu/STM32F103/stm32f10x_tim.c **** 
 573:cpu/STM32F103/stm32f10x_tim.c **** /*******************************************************************************
 574:cpu/STM32F103/stm32f10x_tim.c **** * Function Name  : TIM_ICInit
 575:cpu/STM32F103/stm32f10x_tim.c **** * Description    : Initializes the TIM peripheral according to the specified
 576:cpu/STM32F103/stm32f10x_tim.c **** *                  parameters in the TIM_ICInitStruct.
 577:cpu/STM32F103/stm32f10x_tim.c **** * Input          : - TIMx: where x can be  1, 2, 3, 4, 5 or 8 to select the TIM 
 578:cpu/STM32F103/stm32f10x_tim.c **** *                    peripheral.
 579:cpu/STM32F103/stm32f10x_tim.c **** *                  - TIM_ICInitStruct: pointer to a TIM_ICInitTypeDef structure
 580:cpu/STM32F103/stm32f10x_tim.c **** *                    that contains the configuration information for the specified
 581:cpu/STM32F103/stm32f10x_tim.c **** *                    TIM peripheral.
 582:cpu/STM32F103/stm32f10x_tim.c **** * Output         : None
 583:cpu/STM32F103/stm32f10x_tim.c **** * Return         : None
 584:cpu/STM32F103/stm32f10x_tim.c **** *******************************************************************************/
 585:cpu/STM32F103/stm32f10x_tim.c **** void TIM_ICInit(TIM_TypeDef* TIMx, TIM_ICInitTypeDef* TIM_ICInitStruct)
 586:cpu/STM32F103/stm32f10x_tim.c **** {
 1025              		.loc 1 586 1 is_stmt 1 view -0
 1026              		.cfi_startproc
 1027              		@ args = 0, pretend = 0, frame = 0
 1028              		@ frame_needed = 0, uses_anonymous_args = 0
 587:cpu/STM32F103/stm32f10x_tim.c ****   /* Check the parameters */
 588:cpu/STM32F103/stm32f10x_tim.c ****   assert_param(IS_TIM_123458_PERIPH(TIMx));
 1029              		.loc 1 588 3 view .LVU396
 589:cpu/STM32F103/stm32f10x_tim.c ****   assert_param(IS_TIM_CHANNEL(TIM_ICInitStruct->TIM_Channel));
 1030              		.loc 1 589 3 view .LVU397
 590:cpu/STM32F103/stm32f10x_tim.c ****   assert_param(IS_TIM_IC_POLARITY(TIM_ICInitStruct->TIM_ICPolarity));
 1031              		.loc 1 590 3 view .LVU398
 591:cpu/STM32F103/stm32f10x_tim.c ****   assert_param(IS_TIM_IC_SELECTION(TIM_ICInitStruct->TIM_ICSelection));
 1032              		.loc 1 591 3 view .LVU399
 592:cpu/STM32F103/stm32f10x_tim.c ****   assert_param(IS_TIM_IC_PRESCALER(TIM_ICInitStruct->TIM_ICPrescaler));
 1033              		.loc 1 592 3 view .LVU400
 593:cpu/STM32F103/stm32f10x_tim.c ****   assert_param(IS_TIM_IC_FILTER(TIM_ICInitStruct->TIM_ICFilter));
 1034              		.loc 1 593 3 view .LVU401
 594:cpu/STM32F103/stm32f10x_tim.c ****   
 595:cpu/STM32F103/stm32f10x_tim.c ****   if (TIM_ICInitStruct->TIM_Channel == TIM_Channel_1)
 1035              		.loc 1 595 3 view .LVU402
 1036              		.loc 1 595 23 is_stmt 0 view .LVU403
 1037 0398 0B88     		ldrh	r3, [r1]
 586:cpu/STM32F103/stm32f10x_tim.c ****   /* Check the parameters */
 1038              		.loc 1 586 1 view .LVU404
 1039 039a 30B5     		push	{r4, r5, lr}
 1040              	.LCFI24:
 1041              		.cfi_def_cfa_offset 12
 1042              		.cfi_offset 4, -12
 1043              		.cfi_offset 5, -8
 1044              		.cfi_offset 14, -4
 1045              		.loc 1 595 6 view .LVU405
 1046 039c 43BB     		cbnz	r3, .L50
 596:cpu/STM32F103/stm32f10x_tim.c ****   {
 597:cpu/STM32F103/stm32f10x_tim.c ****     /* TI1 Configuration */
 598:cpu/STM32F103/stm32f10x_tim.c ****     TI1_Config(TIMx, TIM_ICInitStruct->TIM_ICPolarity,
 1047              		.loc 1 598 5 is_stmt 1 view .LVU406
 1048              	.LBB50:
 1049              	.LBB51:
 599:cpu/STM32F103/stm32f10x_tim.c ****                TIM_ICInitStruct->TIM_ICSelection,
 600:cpu/STM32F103/stm32f10x_tim.c ****                TIM_ICInitStruct->TIM_ICFilter);
 601:cpu/STM32F103/stm32f10x_tim.c **** 
 602:cpu/STM32F103/stm32f10x_tim.c ****     /* Set the Input Capture Prescaler value */
 603:cpu/STM32F103/stm32f10x_tim.c ****     TIM_SetIC1Prescaler(TIMx, TIM_ICInitStruct->TIM_ICPrescaler);
 604:cpu/STM32F103/stm32f10x_tim.c ****   }
 605:cpu/STM32F103/stm32f10x_tim.c ****   else if (TIM_ICInitStruct->TIM_Channel == TIM_Channel_2)
 606:cpu/STM32F103/stm32f10x_tim.c ****   {
 607:cpu/STM32F103/stm32f10x_tim.c ****     /* TI2 Configuration */
 608:cpu/STM32F103/stm32f10x_tim.c ****     TI2_Config(TIMx, TIM_ICInitStruct->TIM_ICPolarity,
 609:cpu/STM32F103/stm32f10x_tim.c ****                TIM_ICInitStruct->TIM_ICSelection,
 610:cpu/STM32F103/stm32f10x_tim.c ****                TIM_ICInitStruct->TIM_ICFilter);
 611:cpu/STM32F103/stm32f10x_tim.c **** 
 612:cpu/STM32F103/stm32f10x_tim.c ****     /* Set the Input Capture Prescaler value */
 613:cpu/STM32F103/stm32f10x_tim.c ****     TIM_SetIC2Prescaler(TIMx, TIM_ICInitStruct->TIM_ICPrescaler);
 614:cpu/STM32F103/stm32f10x_tim.c ****   }
 615:cpu/STM32F103/stm32f10x_tim.c ****   else if (TIM_ICInitStruct->TIM_Channel == TIM_Channel_3)
 616:cpu/STM32F103/stm32f10x_tim.c ****   {
 617:cpu/STM32F103/stm32f10x_tim.c ****     /* TI3 Configuration */
 618:cpu/STM32F103/stm32f10x_tim.c ****     TI3_Config(TIMx,  TIM_ICInitStruct->TIM_ICPolarity,
 619:cpu/STM32F103/stm32f10x_tim.c ****                TIM_ICInitStruct->TIM_ICSelection,
 620:cpu/STM32F103/stm32f10x_tim.c ****                TIM_ICInitStruct->TIM_ICFilter);
 621:cpu/STM32F103/stm32f10x_tim.c **** 
 622:cpu/STM32F103/stm32f10x_tim.c ****     /* Set the Input Capture Prescaler value */
 623:cpu/STM32F103/stm32f10x_tim.c ****     TIM_SetIC3Prescaler(TIMx, TIM_ICInitStruct->TIM_ICPrescaler);
 624:cpu/STM32F103/stm32f10x_tim.c ****   }
 625:cpu/STM32F103/stm32f10x_tim.c ****   else
 626:cpu/STM32F103/stm32f10x_tim.c ****   {
 627:cpu/STM32F103/stm32f10x_tim.c ****     /* TI4 Configuration */
 628:cpu/STM32F103/stm32f10x_tim.c ****     TI4_Config(TIMx, TIM_ICInitStruct->TIM_ICPolarity,
 629:cpu/STM32F103/stm32f10x_tim.c ****                TIM_ICInitStruct->TIM_ICSelection,
 630:cpu/STM32F103/stm32f10x_tim.c ****                TIM_ICInitStruct->TIM_ICFilter);
 631:cpu/STM32F103/stm32f10x_tim.c **** 
 632:cpu/STM32F103/stm32f10x_tim.c ****     /* Set the Input Capture Prescaler value */
 633:cpu/STM32F103/stm32f10x_tim.c ****     TIM_SetIC4Prescaler(TIMx, TIM_ICInitStruct->TIM_ICPrescaler);
 634:cpu/STM32F103/stm32f10x_tim.c ****   }
 635:cpu/STM32F103/stm32f10x_tim.c **** }
 636:cpu/STM32F103/stm32f10x_tim.c **** 
 637:cpu/STM32F103/stm32f10x_tim.c **** /*******************************************************************************
 638:cpu/STM32F103/stm32f10x_tim.c **** * Function Name  : TIM_PWMIConfig
 639:cpu/STM32F103/stm32f10x_tim.c **** * Description    : Configures the TIM peripheral according to the specified
 640:cpu/STM32F103/stm32f10x_tim.c **** *                  parameters in the TIM_ICInitStruct to measure an external PWM
 641:cpu/STM32F103/stm32f10x_tim.c **** *                  signal.
 642:cpu/STM32F103/stm32f10x_tim.c **** * Input          : - TIMx: where x can be  1, 2, 3, 4, 5 or 8 to select the TIM 
 643:cpu/STM32F103/stm32f10x_tim.c **** *                    peripheral.
 644:cpu/STM32F103/stm32f10x_tim.c **** *                  - TIM_ICInitStruct: pointer to a TIM_ICInitTypeDef structure
 645:cpu/STM32F103/stm32f10x_tim.c **** *                    that contains the configuration information for the specified
 646:cpu/STM32F103/stm32f10x_tim.c **** *                    TIM peripheral.
 647:cpu/STM32F103/stm32f10x_tim.c **** * Output         : None
 648:cpu/STM32F103/stm32f10x_tim.c **** * Return         : None
 649:cpu/STM32F103/stm32f10x_tim.c **** *******************************************************************************/
 650:cpu/STM32F103/stm32f10x_tim.c **** void TIM_PWMIConfig(TIM_TypeDef* TIMx, TIM_ICInitTypeDef* TIM_ICInitStruct)
 651:cpu/STM32F103/stm32f10x_tim.c **** {
 652:cpu/STM32F103/stm32f10x_tim.c ****   u16 icoppositepolarity = TIM_ICPolarity_Rising;
 653:cpu/STM32F103/stm32f10x_tim.c ****   u16 icoppositeselection = TIM_ICSelection_DirectTI;
 654:cpu/STM32F103/stm32f10x_tim.c **** 
 655:cpu/STM32F103/stm32f10x_tim.c ****   /* Check the parameters */
 656:cpu/STM32F103/stm32f10x_tim.c ****   assert_param(IS_TIM_123458_PERIPH(TIMx));
 657:cpu/STM32F103/stm32f10x_tim.c **** 
 658:cpu/STM32F103/stm32f10x_tim.c ****   /* Select the Opposite Input Polarity */
 659:cpu/STM32F103/stm32f10x_tim.c ****   if (TIM_ICInitStruct->TIM_ICPolarity == TIM_ICPolarity_Rising)
 660:cpu/STM32F103/stm32f10x_tim.c ****   {
 661:cpu/STM32F103/stm32f10x_tim.c ****     icoppositepolarity = TIM_ICPolarity_Falling;
 662:cpu/STM32F103/stm32f10x_tim.c ****   }
 663:cpu/STM32F103/stm32f10x_tim.c ****   else
 664:cpu/STM32F103/stm32f10x_tim.c ****   {
 665:cpu/STM32F103/stm32f10x_tim.c ****     icoppositepolarity = TIM_ICPolarity_Rising;
 666:cpu/STM32F103/stm32f10x_tim.c ****   }
 667:cpu/STM32F103/stm32f10x_tim.c **** 
 668:cpu/STM32F103/stm32f10x_tim.c ****   /* Select the Opposite Input */
 669:cpu/STM32F103/stm32f10x_tim.c ****   if (TIM_ICInitStruct->TIM_ICSelection == TIM_ICSelection_DirectTI)
 670:cpu/STM32F103/stm32f10x_tim.c ****   {
 671:cpu/STM32F103/stm32f10x_tim.c ****     icoppositeselection = TIM_ICSelection_IndirectTI;
 672:cpu/STM32F103/stm32f10x_tim.c ****   }
 673:cpu/STM32F103/stm32f10x_tim.c ****   else
 674:cpu/STM32F103/stm32f10x_tim.c ****   {
 675:cpu/STM32F103/stm32f10x_tim.c ****     icoppositeselection = TIM_ICSelection_DirectTI;
 676:cpu/STM32F103/stm32f10x_tim.c ****   }
 677:cpu/STM32F103/stm32f10x_tim.c **** 
 678:cpu/STM32F103/stm32f10x_tim.c ****   if (TIM_ICInitStruct->TIM_Channel == TIM_Channel_1)
 679:cpu/STM32F103/stm32f10x_tim.c ****   {
 680:cpu/STM32F103/stm32f10x_tim.c ****     /* TI1 Configuration */
 681:cpu/STM32F103/stm32f10x_tim.c ****     TI1_Config(TIMx, TIM_ICInitStruct->TIM_ICPolarity, TIM_ICInitStruct->TIM_ICSelection,
 682:cpu/STM32F103/stm32f10x_tim.c ****                TIM_ICInitStruct->TIM_ICFilter);
 683:cpu/STM32F103/stm32f10x_tim.c **** 
 684:cpu/STM32F103/stm32f10x_tim.c ****     /* Set the Input Capture Prescaler value */
 685:cpu/STM32F103/stm32f10x_tim.c ****     TIM_SetIC1Prescaler(TIMx, TIM_ICInitStruct->TIM_ICPrescaler);
 686:cpu/STM32F103/stm32f10x_tim.c **** 
 687:cpu/STM32F103/stm32f10x_tim.c ****     /* TI2 Configuration */
 688:cpu/STM32F103/stm32f10x_tim.c ****     TI2_Config(TIMx, icoppositepolarity, icoppositeselection, TIM_ICInitStruct->TIM_ICFilter);
 689:cpu/STM32F103/stm32f10x_tim.c **** 
 690:cpu/STM32F103/stm32f10x_tim.c ****     /* Set the Input Capture Prescaler value */
 691:cpu/STM32F103/stm32f10x_tim.c ****     TIM_SetIC2Prescaler(TIMx, TIM_ICInitStruct->TIM_ICPrescaler);
 692:cpu/STM32F103/stm32f10x_tim.c ****   }
 693:cpu/STM32F103/stm32f10x_tim.c ****   else
 694:cpu/STM32F103/stm32f10x_tim.c ****   { 
 695:cpu/STM32F103/stm32f10x_tim.c ****     /* TI2 Configuration */
 696:cpu/STM32F103/stm32f10x_tim.c ****     TI2_Config(TIMx, TIM_ICInitStruct->TIM_ICPolarity, TIM_ICInitStruct->TIM_ICSelection,
 697:cpu/STM32F103/stm32f10x_tim.c ****                TIM_ICInitStruct->TIM_ICFilter);
 698:cpu/STM32F103/stm32f10x_tim.c **** 
 699:cpu/STM32F103/stm32f10x_tim.c ****     /* Set the Input Capture Prescaler value */
 700:cpu/STM32F103/stm32f10x_tim.c ****     TIM_SetIC2Prescaler(TIMx, TIM_ICInitStruct->TIM_ICPrescaler);
 701:cpu/STM32F103/stm32f10x_tim.c **** 
 702:cpu/STM32F103/stm32f10x_tim.c ****     /* TI1 Configuration */
 703:cpu/STM32F103/stm32f10x_tim.c ****     TI1_Config(TIMx, icoppositepolarity, icoppositeselection, TIM_ICInitStruct->TIM_ICFilter);
 704:cpu/STM32F103/stm32f10x_tim.c **** 
 705:cpu/STM32F103/stm32f10x_tim.c ****     /* Set the Input Capture Prescaler value */
 706:cpu/STM32F103/stm32f10x_tim.c ****     TIM_SetIC1Prescaler(TIMx, TIM_ICInitStruct->TIM_ICPrescaler);
 707:cpu/STM32F103/stm32f10x_tim.c ****   }
 708:cpu/STM32F103/stm32f10x_tim.c **** }
 709:cpu/STM32F103/stm32f10x_tim.c **** 
 710:cpu/STM32F103/stm32f10x_tim.c **** /*******************************************************************************
 711:cpu/STM32F103/stm32f10x_tim.c **** * Function Name  : TIM_BDTRConfig
 712:cpu/STM32F103/stm32f10x_tim.c **** * Description    : Configures the: Break feature, dead time, Lock level, the OSSI,
 713:cpu/STM32F103/stm32f10x_tim.c **** *                  the OSSR State and the AOE(automatic output enable).
 714:cpu/STM32F103/stm32f10x_tim.c **** * Input          :- TIMx: where x can be  1 or 8 to select the TIM 
 715:cpu/STM32F103/stm32f10x_tim.c **** *                 - TIM_BDTRInitStruct: pointer to a TIM_BDTRInitTypeDef
 716:cpu/STM32F103/stm32f10x_tim.c **** *                    structure that contains the BDTR Register configuration
 717:cpu/STM32F103/stm32f10x_tim.c **** *                    information for the TIM peripheral.
 718:cpu/STM32F103/stm32f10x_tim.c **** * Output         : None
 719:cpu/STM32F103/stm32f10x_tim.c **** * Return         : None
 720:cpu/STM32F103/stm32f10x_tim.c **** *******************************************************************************/
 721:cpu/STM32F103/stm32f10x_tim.c **** void TIM_BDTRConfig(TIM_TypeDef* TIMx, TIM_BDTRInitTypeDef *TIM_BDTRInitStruct)
 722:cpu/STM32F103/stm32f10x_tim.c **** {
 723:cpu/STM32F103/stm32f10x_tim.c ****   /* Check the parameters */
 724:cpu/STM32F103/stm32f10x_tim.c ****   assert_param(IS_TIM_18_PERIPH(TIMx));
 725:cpu/STM32F103/stm32f10x_tim.c ****   assert_param(IS_TIM_OSSR_STATE(TIM_BDTRInitStruct->TIM_OSSRState));
 726:cpu/STM32F103/stm32f10x_tim.c ****   assert_param(IS_TIM_OSSI_STATE(TIM_BDTRInitStruct->TIM_OSSIState));
 727:cpu/STM32F103/stm32f10x_tim.c ****   assert_param(IS_TIM_LOCK_LEVEL(TIM_BDTRInitStruct->TIM_LOCKLevel));
 728:cpu/STM32F103/stm32f10x_tim.c ****   assert_param(IS_TIM_BREAK_STATE(TIM_BDTRInitStruct->TIM_Break));
 729:cpu/STM32F103/stm32f10x_tim.c ****   assert_param(IS_TIM_BREAK_POLARITY(TIM_BDTRInitStruct->TIM_BreakPolarity));
 730:cpu/STM32F103/stm32f10x_tim.c ****   assert_param(IS_TIM_AUTOMATIC_OUTPUT_STATE(TIM_BDTRInitStruct->TIM_AutomaticOutput));
 731:cpu/STM32F103/stm32f10x_tim.c **** 
 732:cpu/STM32F103/stm32f10x_tim.c ****   /* Set the Lock level, the Break enable Bit and the Ploarity, the OSSR State,
 733:cpu/STM32F103/stm32f10x_tim.c ****      the OSSI State, the dead time value and the Automatic Output Enable Bit */
 734:cpu/STM32F103/stm32f10x_tim.c **** 
 735:cpu/STM32F103/stm32f10x_tim.c ****   TIMx->BDTR = (u32)TIM_BDTRInitStruct->TIM_OSSRState | TIM_BDTRInitStruct->TIM_OSSIState |
 736:cpu/STM32F103/stm32f10x_tim.c ****              TIM_BDTRInitStruct->TIM_LOCKLevel | TIM_BDTRInitStruct->TIM_DeadTime |
 737:cpu/STM32F103/stm32f10x_tim.c ****              TIM_BDTRInitStruct->TIM_Break | TIM_BDTRInitStruct->TIM_BreakPolarity |
 738:cpu/STM32F103/stm32f10x_tim.c ****              TIM_BDTRInitStruct->TIM_AutomaticOutput;
 739:cpu/STM32F103/stm32f10x_tim.c **** 
 740:cpu/STM32F103/stm32f10x_tim.c **** }
 741:cpu/STM32F103/stm32f10x_tim.c **** 
 742:cpu/STM32F103/stm32f10x_tim.c **** /*******************************************************************************
 743:cpu/STM32F103/stm32f10x_tim.c **** * Function Name  : TIM_TimeBaseStructInit
 744:cpu/STM32F103/stm32f10x_tim.c **** * Description    : Fills each TIM_TimeBaseInitStruct member with its default value.
 745:cpu/STM32F103/stm32f10x_tim.c **** * Input          : - TIM_TimeBaseInitStruct : pointer to a TIM_TimeBaseInitTypeDef
 746:cpu/STM32F103/stm32f10x_tim.c **** *                    structure which will be initialized.
 747:cpu/STM32F103/stm32f10x_tim.c **** * Output         : None
 748:cpu/STM32F103/stm32f10x_tim.c **** * Return         : None
 749:cpu/STM32F103/stm32f10x_tim.c **** *******************************************************************************/
 750:cpu/STM32F103/stm32f10x_tim.c **** void TIM_TimeBaseStructInit(TIM_TimeBaseInitTypeDef* TIM_TimeBaseInitStruct)
 751:cpu/STM32F103/stm32f10x_tim.c **** {
 752:cpu/STM32F103/stm32f10x_tim.c ****   /* Set the default configuration */
 753:cpu/STM32F103/stm32f10x_tim.c ****   TIM_TimeBaseInitStruct->TIM_Period = 0xFFFF;
 754:cpu/STM32F103/stm32f10x_tim.c ****   TIM_TimeBaseInitStruct->TIM_Prescaler = 0x0000;
 755:cpu/STM32F103/stm32f10x_tim.c ****   TIM_TimeBaseInitStruct->TIM_ClockDivision = TIM_CKD_DIV1;
 756:cpu/STM32F103/stm32f10x_tim.c ****   TIM_TimeBaseInitStruct->TIM_CounterMode = TIM_CounterMode_Up;
 757:cpu/STM32F103/stm32f10x_tim.c ****   TIM_TimeBaseInitStruct->TIM_RepetitionCounter = 0x0000;
 758:cpu/STM32F103/stm32f10x_tim.c **** }
 759:cpu/STM32F103/stm32f10x_tim.c **** 
 760:cpu/STM32F103/stm32f10x_tim.c **** /*******************************************************************************
 761:cpu/STM32F103/stm32f10x_tim.c **** * Function Name  : TIM_OCStructInit
 762:cpu/STM32F103/stm32f10x_tim.c **** * Description    : Fills each TIM_OCInitStruct member with its default value.
 763:cpu/STM32F103/stm32f10x_tim.c **** * Input          : - TIM_OCInitStruct : pointer to a TIM_OCInitTypeDef structure
 764:cpu/STM32F103/stm32f10x_tim.c **** *                    which will be initialized.
 765:cpu/STM32F103/stm32f10x_tim.c **** * Output         : None
 766:cpu/STM32F103/stm32f10x_tim.c **** * Return         : None
 767:cpu/STM32F103/stm32f10x_tim.c **** *******************************************************************************/
 768:cpu/STM32F103/stm32f10x_tim.c **** void TIM_OCStructInit(TIM_OCInitTypeDef* TIM_OCInitStruct)
 769:cpu/STM32F103/stm32f10x_tim.c **** {
 770:cpu/STM32F103/stm32f10x_tim.c ****   /* Set the default configuration */
 771:cpu/STM32F103/stm32f10x_tim.c ****   TIM_OCInitStruct->TIM_OCMode = TIM_OCMode_Timing;
 772:cpu/STM32F103/stm32f10x_tim.c ****   TIM_OCInitStruct->TIM_OutputState = TIM_OutputState_Disable;
 773:cpu/STM32F103/stm32f10x_tim.c ****   TIM_OCInitStruct->TIM_OutputNState = TIM_OutputNState_Disable;
 774:cpu/STM32F103/stm32f10x_tim.c ****   TIM_OCInitStruct->TIM_Pulse = 0x0000;
 775:cpu/STM32F103/stm32f10x_tim.c ****   TIM_OCInitStruct->TIM_OCPolarity = TIM_OCPolarity_High;
 776:cpu/STM32F103/stm32f10x_tim.c ****   TIM_OCInitStruct->TIM_OCNPolarity = TIM_OCPolarity_High;
 777:cpu/STM32F103/stm32f10x_tim.c ****   TIM_OCInitStruct->TIM_OCIdleState = TIM_OCIdleState_Reset;
 778:cpu/STM32F103/stm32f10x_tim.c ****   TIM_OCInitStruct->TIM_OCNIdleState = TIM_OCNIdleState_Reset;
 779:cpu/STM32F103/stm32f10x_tim.c **** }
 780:cpu/STM32F103/stm32f10x_tim.c **** 
 781:cpu/STM32F103/stm32f10x_tim.c **** /*******************************************************************************
 782:cpu/STM32F103/stm32f10x_tim.c **** * Function Name  : TIM_ICStructInit
 783:cpu/STM32F103/stm32f10x_tim.c **** * Description    : Fills each TIM_ICInitStruct member with its default value.
 784:cpu/STM32F103/stm32f10x_tim.c **** * Input          : - TIM_ICInitStruct : pointer to a TIM_ICInitTypeDef structure
 785:cpu/STM32F103/stm32f10x_tim.c **** *                    which will be initialized.
 786:cpu/STM32F103/stm32f10x_tim.c **** * Output         : None
 787:cpu/STM32F103/stm32f10x_tim.c **** * Return         : None
 788:cpu/STM32F103/stm32f10x_tim.c **** *******************************************************************************/
 789:cpu/STM32F103/stm32f10x_tim.c **** void TIM_ICStructInit(TIM_ICInitTypeDef* TIM_ICInitStruct)
 790:cpu/STM32F103/stm32f10x_tim.c **** {
 791:cpu/STM32F103/stm32f10x_tim.c ****   /* Set the default configuration */
 792:cpu/STM32F103/stm32f10x_tim.c ****   TIM_ICInitStruct->TIM_Channel = TIM_Channel_1;
 793:cpu/STM32F103/stm32f10x_tim.c ****   TIM_ICInitStruct->TIM_ICPolarity = TIM_ICPolarity_Rising;
 794:cpu/STM32F103/stm32f10x_tim.c ****   TIM_ICInitStruct->TIM_ICSelection = TIM_ICSelection_DirectTI;
 795:cpu/STM32F103/stm32f10x_tim.c ****   TIM_ICInitStruct->TIM_ICPrescaler = TIM_ICPSC_DIV1;
 796:cpu/STM32F103/stm32f10x_tim.c ****   TIM_ICInitStruct->TIM_ICFilter = 0x00;
 797:cpu/STM32F103/stm32f10x_tim.c **** }
 798:cpu/STM32F103/stm32f10x_tim.c **** 
 799:cpu/STM32F103/stm32f10x_tim.c **** /*******************************************************************************
 800:cpu/STM32F103/stm32f10x_tim.c **** * Function Name  : TIM_BDTRStructInit
 801:cpu/STM32F103/stm32f10x_tim.c **** * Description    : Fills each TIM_BDTRInitStruct member with its default value.
 802:cpu/STM32F103/stm32f10x_tim.c **** * Input          : - TIM_BDTRInitStruct : pointer to a TIM_BDTRInitTypeDef
 803:cpu/STM32F103/stm32f10x_tim.c **** *                    structure which will be initialized.
 804:cpu/STM32F103/stm32f10x_tim.c **** * Output         : None
 805:cpu/STM32F103/stm32f10x_tim.c **** * Return         : None
 806:cpu/STM32F103/stm32f10x_tim.c **** *******************************************************************************/
 807:cpu/STM32F103/stm32f10x_tim.c **** void TIM_BDTRStructInit(TIM_BDTRInitTypeDef* TIM_BDTRInitStruct)
 808:cpu/STM32F103/stm32f10x_tim.c **** {
 809:cpu/STM32F103/stm32f10x_tim.c ****   /* Set the default configuration */
 810:cpu/STM32F103/stm32f10x_tim.c ****   TIM_BDTRInitStruct->TIM_OSSRState = TIM_OSSRState_Disable;
 811:cpu/STM32F103/stm32f10x_tim.c ****   TIM_BDTRInitStruct->TIM_OSSIState = TIM_OSSIState_Disable;
 812:cpu/STM32F103/stm32f10x_tim.c ****   TIM_BDTRInitStruct->TIM_LOCKLevel = TIM_LOCKLevel_OFF;
 813:cpu/STM32F103/stm32f10x_tim.c ****   TIM_BDTRInitStruct->TIM_DeadTime = 0x00;
 814:cpu/STM32F103/stm32f10x_tim.c ****   TIM_BDTRInitStruct->TIM_Break = TIM_Break_Disable;
 815:cpu/STM32F103/stm32f10x_tim.c ****   TIM_BDTRInitStruct->TIM_BreakPolarity = TIM_BreakPolarity_Low;
 816:cpu/STM32F103/stm32f10x_tim.c ****   TIM_BDTRInitStruct->TIM_AutomaticOutput = TIM_AutomaticOutput_Disable;
 817:cpu/STM32F103/stm32f10x_tim.c **** }
 818:cpu/STM32F103/stm32f10x_tim.c **** 
 819:cpu/STM32F103/stm32f10x_tim.c **** /*******************************************************************************
 820:cpu/STM32F103/stm32f10x_tim.c **** * Function Name  : TIM_Cmd
 821:cpu/STM32F103/stm32f10x_tim.c **** * Description    : Enables or disables the specified TIM peripheral.
 822:cpu/STM32F103/stm32f10x_tim.c **** * Input          : - TIMx: where x can be 1 to 8 to select the TIMx peripheral.
 823:cpu/STM32F103/stm32f10x_tim.c **** *                  - NewState: new state of the TIMx peripheral.
 824:cpu/STM32F103/stm32f10x_tim.c **** *                    This parameter can be: ENABLE or DISABLE.
 825:cpu/STM32F103/stm32f10x_tim.c **** * Output         : None
 826:cpu/STM32F103/stm32f10x_tim.c **** * Return         : None
 827:cpu/STM32F103/stm32f10x_tim.c **** *******************************************************************************/
 828:cpu/STM32F103/stm32f10x_tim.c **** void TIM_Cmd(TIM_TypeDef* TIMx, FunctionalState NewState)
 829:cpu/STM32F103/stm32f10x_tim.c **** {
 830:cpu/STM32F103/stm32f10x_tim.c ****   /* Check the parameters */
 831:cpu/STM32F103/stm32f10x_tim.c ****   assert_param(IS_TIM_ALL_PERIPH(TIMx));
 832:cpu/STM32F103/stm32f10x_tim.c ****   assert_param(IS_FUNCTIONAL_STATE(NewState));
 833:cpu/STM32F103/stm32f10x_tim.c ****   
 834:cpu/STM32F103/stm32f10x_tim.c ****   if (NewState != DISABLE)
 835:cpu/STM32F103/stm32f10x_tim.c ****   {
 836:cpu/STM32F103/stm32f10x_tim.c ****     /* Enable the TIM Counter */
 837:cpu/STM32F103/stm32f10x_tim.c ****     TIMx->CR1 |= CR1_CEN_Set;
 838:cpu/STM32F103/stm32f10x_tim.c ****   }
 839:cpu/STM32F103/stm32f10x_tim.c ****   else
 840:cpu/STM32F103/stm32f10x_tim.c ****   {
 841:cpu/STM32F103/stm32f10x_tim.c ****     /* Disable the TIM Counter */
 842:cpu/STM32F103/stm32f10x_tim.c ****     TIMx->CR1 &= CR1_CEN_Reset;
 843:cpu/STM32F103/stm32f10x_tim.c ****   }
 844:cpu/STM32F103/stm32f10x_tim.c **** }
 845:cpu/STM32F103/stm32f10x_tim.c **** 
 846:cpu/STM32F103/stm32f10x_tim.c **** /*******************************************************************************
 847:cpu/STM32F103/stm32f10x_tim.c **** * Function Name  : TIM_CtrlPWMOutputs
 848:cpu/STM32F103/stm32f10x_tim.c **** * Description    : Enables or disables the TIM peripheral Main Outputs.
 849:cpu/STM32F103/stm32f10x_tim.c **** * Input          :- TIMx: where x can be 1 or 8 to select the TIMx peripheral.
 850:cpu/STM32F103/stm32f10x_tim.c **** *                 - NewState: new state of the TIM peripheral Main Outputs.
 851:cpu/STM32F103/stm32f10x_tim.c **** *                    This parameter can be: ENABLE or DISABLE.
 852:cpu/STM32F103/stm32f10x_tim.c **** * Output         : None
 853:cpu/STM32F103/stm32f10x_tim.c **** * Return         : None
 854:cpu/STM32F103/stm32f10x_tim.c **** *******************************************************************************/
 855:cpu/STM32F103/stm32f10x_tim.c **** void TIM_CtrlPWMOutputs(TIM_TypeDef* TIMx, FunctionalState NewState)
 856:cpu/STM32F103/stm32f10x_tim.c **** {
 857:cpu/STM32F103/stm32f10x_tim.c ****   /* Check the parameters */
 858:cpu/STM32F103/stm32f10x_tim.c ****   assert_param(IS_TIM_18_PERIPH(TIMx));
 859:cpu/STM32F103/stm32f10x_tim.c ****   assert_param(IS_FUNCTIONAL_STATE(NewState));
 860:cpu/STM32F103/stm32f10x_tim.c **** 
 861:cpu/STM32F103/stm32f10x_tim.c ****   if (NewState != DISABLE)
 862:cpu/STM32F103/stm32f10x_tim.c ****   {
 863:cpu/STM32F103/stm32f10x_tim.c ****     /* Enable the TIM Main Output */
 864:cpu/STM32F103/stm32f10x_tim.c ****     TIMx->BDTR |= BDTR_MOE_Set;
 865:cpu/STM32F103/stm32f10x_tim.c ****   }
 866:cpu/STM32F103/stm32f10x_tim.c ****   else
 867:cpu/STM32F103/stm32f10x_tim.c ****   {
 868:cpu/STM32F103/stm32f10x_tim.c ****     /* Disable the TIM Main Output */
 869:cpu/STM32F103/stm32f10x_tim.c ****     TIMx->BDTR &= BDTR_MOE_Reset;
 870:cpu/STM32F103/stm32f10x_tim.c ****   }  
 871:cpu/STM32F103/stm32f10x_tim.c **** }
 872:cpu/STM32F103/stm32f10x_tim.c **** 
 873:cpu/STM32F103/stm32f10x_tim.c **** /*******************************************************************************
 874:cpu/STM32F103/stm32f10x_tim.c **** * Function Name  : TIM_ITConfig
 875:cpu/STM32F103/stm32f10x_tim.c **** * Description    : Enables or disables the specified TIM interrupts.
 876:cpu/STM32F103/stm32f10x_tim.c **** * Input          : - TIMx: where x can be 1 to 8 to select the TIMx peripheral.
 877:cpu/STM32F103/stm32f10x_tim.c **** *                  - TIM_IT: specifies the TIM interrupts sources to be enabled
 878:cpu/STM32F103/stm32f10x_tim.c **** *                    or disabled.
 879:cpu/STM32F103/stm32f10x_tim.c **** *                    This parameter can be any combination of the following values:
 880:cpu/STM32F103/stm32f10x_tim.c **** *                       - TIM_IT_Update: TIM update Interrupt source
 881:cpu/STM32F103/stm32f10x_tim.c **** *                       - TIM_IT_CC1: TIM Capture Compare 1 Interrupt source
 882:cpu/STM32F103/stm32f10x_tim.c **** *                       - TIM_IT_CC2: TIM Capture Compare 2 Interrupt source
 883:cpu/STM32F103/stm32f10x_tim.c **** *                       - TIM_IT_CC3: TIM Capture Compare 3 Interrupt source
 884:cpu/STM32F103/stm32f10x_tim.c **** *                       - TIM_IT_CC4: TIM Capture Compare 4 Interrupt source
 885:cpu/STM32F103/stm32f10x_tim.c **** *                       - TIM_IT_COM: TIM Commutation Interrupt source
 886:cpu/STM32F103/stm32f10x_tim.c **** *                       - TIM_IT_Trigger: TIM Trigger Interrupt source
 887:cpu/STM32F103/stm32f10x_tim.c **** *                       - TIM_IT_Break: TIM Break Interrupt source
 888:cpu/STM32F103/stm32f10x_tim.c **** *                  - NewState: new state of the TIM interrupts.
 889:cpu/STM32F103/stm32f10x_tim.c **** *                    This parameter can be: ENABLE or DISABLE.
 890:cpu/STM32F103/stm32f10x_tim.c **** * Output         : None
 891:cpu/STM32F103/stm32f10x_tim.c **** * Return         : None
 892:cpu/STM32F103/stm32f10x_tim.c **** *******************************************************************************/
 893:cpu/STM32F103/stm32f10x_tim.c **** void TIM_ITConfig(TIM_TypeDef* TIMx, u16 TIM_IT, FunctionalState NewState)
 894:cpu/STM32F103/stm32f10x_tim.c **** {  
 895:cpu/STM32F103/stm32f10x_tim.c ****   /* Check the parameters */
 896:cpu/STM32F103/stm32f10x_tim.c ****   assert_param(IS_TIM_ALL_PERIPH(TIMx));
 897:cpu/STM32F103/stm32f10x_tim.c ****   assert_param(IS_TIM_IT(TIM_IT));
 898:cpu/STM32F103/stm32f10x_tim.c ****   assert_param(IS_TIM_PERIPH_IT((TIMx), (TIM_IT)));
 899:cpu/STM32F103/stm32f10x_tim.c ****   assert_param(IS_FUNCTIONAL_STATE(NewState));
 900:cpu/STM32F103/stm32f10x_tim.c ****   
 901:cpu/STM32F103/stm32f10x_tim.c ****   if (NewState != DISABLE)
 902:cpu/STM32F103/stm32f10x_tim.c ****   {
 903:cpu/STM32F103/stm32f10x_tim.c ****     /* Enable the Interrupt sources */
 904:cpu/STM32F103/stm32f10x_tim.c ****     TIMx->DIER |= TIM_IT;
 905:cpu/STM32F103/stm32f10x_tim.c ****   }
 906:cpu/STM32F103/stm32f10x_tim.c ****   else
 907:cpu/STM32F103/stm32f10x_tim.c ****   {
 908:cpu/STM32F103/stm32f10x_tim.c ****     /* Disable the Interrupt sources */
 909:cpu/STM32F103/stm32f10x_tim.c ****     TIMx->DIER &= (u16)~TIM_IT;
 910:cpu/STM32F103/stm32f10x_tim.c ****   }
 911:cpu/STM32F103/stm32f10x_tim.c **** }
 912:cpu/STM32F103/stm32f10x_tim.c **** 
 913:cpu/STM32F103/stm32f10x_tim.c **** /*******************************************************************************
 914:cpu/STM32F103/stm32f10x_tim.c **** * Function Name  : TIM_GenerateEvent
 915:cpu/STM32F103/stm32f10x_tim.c **** * Description    : Configures the TIMx event to be generate by software.
 916:cpu/STM32F103/stm32f10x_tim.c **** * Input          : - TIMx: where x can be 1 to 8 to select the TIM peripheral.
 917:cpu/STM32F103/stm32f10x_tim.c **** *                  - TIM_EventSource: specifies the event source.
 918:cpu/STM32F103/stm32f10x_tim.c **** *                    This parameter can be one or more of the following values:	   
 919:cpu/STM32F103/stm32f10x_tim.c **** *                       - TIM_EventSource_Update: Timer update Event source
 920:cpu/STM32F103/stm32f10x_tim.c **** *                       - TIM_EventSource_CC1: Timer Capture Compare 1 Event source
 921:cpu/STM32F103/stm32f10x_tim.c **** *                       - TIM_EventSource_CC2: Timer Capture Compare 2 Event source
 922:cpu/STM32F103/stm32f10x_tim.c **** *                       - TIM_EventSource_CC3: Timer Capture Compare 3 Event source
 923:cpu/STM32F103/stm32f10x_tim.c **** *                       - TIM_EventSource_CC4: Timer Capture Compare 4 Event source
 924:cpu/STM32F103/stm32f10x_tim.c **** *                       - TIM_EventSource_Trigger: Timer Trigger Event source
 925:cpu/STM32F103/stm32f10x_tim.c **** * Output         : None
 926:cpu/STM32F103/stm32f10x_tim.c **** * Return         : None
 927:cpu/STM32F103/stm32f10x_tim.c **** *******************************************************************************/
 928:cpu/STM32F103/stm32f10x_tim.c **** void TIM_GenerateEvent(TIM_TypeDef* TIMx, u16 TIM_EventSource)
 929:cpu/STM32F103/stm32f10x_tim.c **** { 
 930:cpu/STM32F103/stm32f10x_tim.c ****   /* Check the parameters */
 931:cpu/STM32F103/stm32f10x_tim.c ****   assert_param(IS_TIM_ALL_PERIPH(TIMx));
 932:cpu/STM32F103/stm32f10x_tim.c ****   assert_param(IS_TIM_EVENT_SOURCE(TIM_EventSource));
 933:cpu/STM32F103/stm32f10x_tim.c ****   assert_param(IS_TIM_PERIPH_EVENT((TIMx), (TIM_EventSource)));
 934:cpu/STM32F103/stm32f10x_tim.c **** 
 935:cpu/STM32F103/stm32f10x_tim.c ****   /* Set the event sources */
 936:cpu/STM32F103/stm32f10x_tim.c ****   TIMx->EGR = TIM_EventSource;
 937:cpu/STM32F103/stm32f10x_tim.c **** }
 938:cpu/STM32F103/stm32f10x_tim.c **** 
 939:cpu/STM32F103/stm32f10x_tim.c **** /*******************************************************************************
 940:cpu/STM32F103/stm32f10x_tim.c **** * Function Name  : TIM_DMAConfig
 941:cpu/STM32F103/stm32f10x_tim.c **** * Description    : Configures the TIMxs DMA interface.
 942:cpu/STM32F103/stm32f10x_tim.c **** * Input          : - TIMx: where x can be  1, 2, 3, 4, 5 or 8 to select the TIM 
 943:cpu/STM32F103/stm32f10x_tim.c **** *                    peripheral.
 944:cpu/STM32F103/stm32f10x_tim.c **** *                  - TIM_DMABase: DMA Base address.
 945:cpu/STM32F103/stm32f10x_tim.c **** *                    This parameter can be one of the following values:
 946:cpu/STM32F103/stm32f10x_tim.c **** *                       - TIM_DMABase_CR, TIM_DMABase_CR2, TIM_DMABase_SMCR,
 947:cpu/STM32F103/stm32f10x_tim.c **** *                         TIM_DMABase_DIER, TIM1_DMABase_SR, TIM_DMABase_EGR,
 948:cpu/STM32F103/stm32f10x_tim.c **** *                         TIM_DMABase_CCMR1, TIM_DMABase_CCMR2, TIM_DMABase_CCER,
 949:cpu/STM32F103/stm32f10x_tim.c **** *                         TIM_DMABase_CNT, TIM_DMABase_PSC, TIM_DMABase_ARR,
 950:cpu/STM32F103/stm32f10x_tim.c **** *                         TIM_DMABase_RCR, TIM_DMABase_CCR1, TIM_DMABase_CCR2,
 951:cpu/STM32F103/stm32f10x_tim.c **** *                         TIM_DMABase_CCR3, TIM_DMABase_CCR4, TIM_DMABase_BDTR,
 952:cpu/STM32F103/stm32f10x_tim.c **** *                         TIM_DMABase_DCR.
 953:cpu/STM32F103/stm32f10x_tim.c **** *                   - TIM_DMABurstLength: DMA Burst length.
 954:cpu/STM32F103/stm32f10x_tim.c **** *                     This parameter can be one value between:
 955:cpu/STM32F103/stm32f10x_tim.c **** *                     TIM_DMABurstLength_1Byte and TIM_DMABurstLength_18Bytes.
 956:cpu/STM32F103/stm32f10x_tim.c **** * Output         : None
 957:cpu/STM32F103/stm32f10x_tim.c **** * Return         : None
 958:cpu/STM32F103/stm32f10x_tim.c **** *******************************************************************************/
 959:cpu/STM32F103/stm32f10x_tim.c **** void TIM_DMAConfig(TIM_TypeDef* TIMx, u16 TIM_DMABase, u16 TIM_DMABurstLength)
 960:cpu/STM32F103/stm32f10x_tim.c **** {
 961:cpu/STM32F103/stm32f10x_tim.c ****   /* Check the parameters */
 962:cpu/STM32F103/stm32f10x_tim.c ****   assert_param(IS_TIM_123458_PERIPH(TIMx));
 963:cpu/STM32F103/stm32f10x_tim.c ****   assert_param(IS_TIM_DMA_BASE(TIM_DMABase));
 964:cpu/STM32F103/stm32f10x_tim.c ****   assert_param(IS_TIM_DMA_LENGTH(TIM_DMABurstLength));
 965:cpu/STM32F103/stm32f10x_tim.c **** 
 966:cpu/STM32F103/stm32f10x_tim.c ****   /* Set the DMA Base and the DMA Burst Length */
 967:cpu/STM32F103/stm32f10x_tim.c ****   TIMx->DCR = TIM_DMABase | TIM_DMABurstLength;
 968:cpu/STM32F103/stm32f10x_tim.c **** }
 969:cpu/STM32F103/stm32f10x_tim.c **** 
 970:cpu/STM32F103/stm32f10x_tim.c **** /*******************************************************************************
 971:cpu/STM32F103/stm32f10x_tim.c **** * Function Name  : TIM_DMACmd
 972:cpu/STM32F103/stm32f10x_tim.c **** * Description    : Enables or disables the TIMxs DMA Requests.
 973:cpu/STM32F103/stm32f10x_tim.c **** * Input          : - TIMx: where x can be  1 to 8 to select the TIM peripheral. 
 974:cpu/STM32F103/stm32f10x_tim.c **** *                  - TIM_DMASources: specifies the DMA Request sources.
 975:cpu/STM32F103/stm32f10x_tim.c **** *                    This parameter can be any combination of the following values:
 976:cpu/STM32F103/stm32f10x_tim.c **** *                       - TIM_DMA_Update: TIM update Interrupt source
 977:cpu/STM32F103/stm32f10x_tim.c **** *                       - TIM_DMA_CC1: TIM Capture Compare 1 DMA source
 978:cpu/STM32F103/stm32f10x_tim.c **** *                       - TIM_DMA_CC2: TIM Capture Compare 2 DMA source
 979:cpu/STM32F103/stm32f10x_tim.c **** *                       - TIM_DMA_CC3: TIM Capture Compare 3 DMA source
 980:cpu/STM32F103/stm32f10x_tim.c **** *                       - TIM_DMA_CC4: TIM Capture Compare 4 DMA source
 981:cpu/STM32F103/stm32f10x_tim.c **** *                       - TIM_DMA_COM: TIM Commutation DMA source
 982:cpu/STM32F103/stm32f10x_tim.c **** *                       - TIM_DMA_Trigger: TIM Trigger DMA source
 983:cpu/STM32F103/stm32f10x_tim.c **** *                  - NewState: new state of the DMA Request sources.
 984:cpu/STM32F103/stm32f10x_tim.c **** *                    This parameter can be: ENABLE or DISABLE.
 985:cpu/STM32F103/stm32f10x_tim.c **** * Output         : None
 986:cpu/STM32F103/stm32f10x_tim.c **** * Return         : None
 987:cpu/STM32F103/stm32f10x_tim.c **** *******************************************************************************/
 988:cpu/STM32F103/stm32f10x_tim.c **** void TIM_DMACmd(TIM_TypeDef* TIMx, u16 TIM_DMASource, FunctionalState NewState)
 989:cpu/STM32F103/stm32f10x_tim.c **** { 
 990:cpu/STM32F103/stm32f10x_tim.c ****   /* Check the parameters */
 991:cpu/STM32F103/stm32f10x_tim.c ****   assert_param(IS_TIM_ALL_PERIPH(TIMx));
 992:cpu/STM32F103/stm32f10x_tim.c ****   assert_param(IS_TIM_DMA_SOURCE(TIM_DMASource));
 993:cpu/STM32F103/stm32f10x_tim.c ****   assert_param(IS_TIM_PERIPH_DMA(TIMx, TIM_DMASource));
 994:cpu/STM32F103/stm32f10x_tim.c ****   assert_param(IS_FUNCTIONAL_STATE(NewState));
 995:cpu/STM32F103/stm32f10x_tim.c ****   
 996:cpu/STM32F103/stm32f10x_tim.c ****   if (NewState != DISABLE)
 997:cpu/STM32F103/stm32f10x_tim.c ****   {
 998:cpu/STM32F103/stm32f10x_tim.c ****     /* Enable the DMA sources */
 999:cpu/STM32F103/stm32f10x_tim.c ****     TIMx->DIER |= TIM_DMASource; 
1000:cpu/STM32F103/stm32f10x_tim.c ****   }
1001:cpu/STM32F103/stm32f10x_tim.c ****   else
1002:cpu/STM32F103/stm32f10x_tim.c ****   {
1003:cpu/STM32F103/stm32f10x_tim.c ****     /* Disable the DMA sources */
1004:cpu/STM32F103/stm32f10x_tim.c ****     TIMx->DIER &= (u16)~TIM_DMASource;
1005:cpu/STM32F103/stm32f10x_tim.c ****   }
1006:cpu/STM32F103/stm32f10x_tim.c **** }
1007:cpu/STM32F103/stm32f10x_tim.c **** 
1008:cpu/STM32F103/stm32f10x_tim.c **** /*******************************************************************************
1009:cpu/STM32F103/stm32f10x_tim.c **** * Function Name  : TIM_InternalClockConfig
1010:cpu/STM32F103/stm32f10x_tim.c **** * Description    : Configures the TIMx interrnal Clock
1011:cpu/STM32F103/stm32f10x_tim.c **** * Input          : - TIMx: where x can be  1, 2, 3, 4, 5 or 8 to select the TIM 
1012:cpu/STM32F103/stm32f10x_tim.c **** *                    peripheral.
1013:cpu/STM32F103/stm32f10x_tim.c **** * Output         : None
1014:cpu/STM32F103/stm32f10x_tim.c **** * Return         : None
1015:cpu/STM32F103/stm32f10x_tim.c **** *******************************************************************************/
1016:cpu/STM32F103/stm32f10x_tim.c **** void TIM_InternalClockConfig(TIM_TypeDef* TIMx)
1017:cpu/STM32F103/stm32f10x_tim.c **** {
1018:cpu/STM32F103/stm32f10x_tim.c ****   /* Check the parameters */
1019:cpu/STM32F103/stm32f10x_tim.c ****   assert_param(IS_TIM_123458_PERIPH(TIMx));
1020:cpu/STM32F103/stm32f10x_tim.c **** 
1021:cpu/STM32F103/stm32f10x_tim.c ****   /* Disable slave mode to clock the prescaler directly with the internal clock */
1022:cpu/STM32F103/stm32f10x_tim.c ****   TIMx->SMCR &=  SMCR_SMS_Mask;
1023:cpu/STM32F103/stm32f10x_tim.c **** }
1024:cpu/STM32F103/stm32f10x_tim.c **** /*******************************************************************************
1025:cpu/STM32F103/stm32f10x_tim.c **** * Function Name  : TIM_ITRxExternalClockConfig
1026:cpu/STM32F103/stm32f10x_tim.c **** * Description    : Configures the TIMx Internal Trigger as External Clock
1027:cpu/STM32F103/stm32f10x_tim.c **** * Input          : - TIMx: where x can be  1, 2, 3, 4, 5 or 8 to select the TIM 
1028:cpu/STM32F103/stm32f10x_tim.c **** *                    peripheral.
1029:cpu/STM32F103/stm32f10x_tim.c **** *                  - TIM_ITRSource: Trigger source.
1030:cpu/STM32F103/stm32f10x_tim.c **** *                    This parameter can be one of the following values:
1031:cpu/STM32F103/stm32f10x_tim.c **** *                       - TIM_TS_ITR0: Internal Trigger 0
1032:cpu/STM32F103/stm32f10x_tim.c **** *                       - TIM_TS_ITR1: Internal Trigger 1
1033:cpu/STM32F103/stm32f10x_tim.c **** *                       - TIM_TS_ITR2: Internal Trigger 2
1034:cpu/STM32F103/stm32f10x_tim.c **** *                       - TIM_TS_ITR3: Internal Trigger 3
1035:cpu/STM32F103/stm32f10x_tim.c **** * Output         : None
1036:cpu/STM32F103/stm32f10x_tim.c **** * Return         : None
1037:cpu/STM32F103/stm32f10x_tim.c **** *******************************************************************************/
1038:cpu/STM32F103/stm32f10x_tim.c **** void TIM_ITRxExternalClockConfig(TIM_TypeDef* TIMx, u16 TIM_InputTriggerSource)
1039:cpu/STM32F103/stm32f10x_tim.c **** {
1040:cpu/STM32F103/stm32f10x_tim.c ****   /* Check the parameters */
1041:cpu/STM32F103/stm32f10x_tim.c ****   assert_param(IS_TIM_123458_PERIPH(TIMx));
1042:cpu/STM32F103/stm32f10x_tim.c ****   assert_param(IS_TIM_INTERNAL_TRIGGER_SELECTION(TIM_InputTriggerSource));
1043:cpu/STM32F103/stm32f10x_tim.c **** 
1044:cpu/STM32F103/stm32f10x_tim.c ****   /* Select the Internal Trigger */
1045:cpu/STM32F103/stm32f10x_tim.c ****   TIM_SelectInputTrigger(TIMx, TIM_InputTriggerSource);
1046:cpu/STM32F103/stm32f10x_tim.c **** 
1047:cpu/STM32F103/stm32f10x_tim.c ****   /* Select the External clock mode1 */
1048:cpu/STM32F103/stm32f10x_tim.c ****   TIMx->SMCR |= TIM_SlaveMode_External1;
1049:cpu/STM32F103/stm32f10x_tim.c **** }
1050:cpu/STM32F103/stm32f10x_tim.c **** /*******************************************************************************
1051:cpu/STM32F103/stm32f10x_tim.c **** * Function Name  : TIM_TIxExternalClockConfig
1052:cpu/STM32F103/stm32f10x_tim.c **** * Description    : Configures the TIMx Trigger as External Clock
1053:cpu/STM32F103/stm32f10x_tim.c **** * Input          : - TIMx: where x can be  1, 2, 3, 4, 5 or 8 to select the TIM 
1054:cpu/STM32F103/stm32f10x_tim.c **** *                    peripheral.
1055:cpu/STM32F103/stm32f10x_tim.c **** *                  - TIM_TIxExternalCLKSource: Trigger source.
1056:cpu/STM32F103/stm32f10x_tim.c **** *                    This parameter can be one of the following values:
1057:cpu/STM32F103/stm32f10x_tim.c **** *                       - TIM_TIxExternalCLK1Source_TI1ED: TI1 Edge Detector
1058:cpu/STM32F103/stm32f10x_tim.c **** *                       - TIM_TIxExternalCLK1Source_TI1: Filtered Timer Input 1
1059:cpu/STM32F103/stm32f10x_tim.c **** *                       - TIM_TIxExternalCLK1Source_TI2: Filtered Timer Input 2
1060:cpu/STM32F103/stm32f10x_tim.c **** *                  - TIM_ICPolarity: specifies the TIx Polarity.
1061:cpu/STM32F103/stm32f10x_tim.c **** *                    This parameter can be:
1062:cpu/STM32F103/stm32f10x_tim.c **** *                       - TIM_ICPolarity_Rising
1063:cpu/STM32F103/stm32f10x_tim.c **** *                       - TIM_ICPolarity_Falling
1064:cpu/STM32F103/stm32f10x_tim.c **** *                   - ICFilter : specifies the filter value.
1065:cpu/STM32F103/stm32f10x_tim.c **** *                     This parameter must be a value between 0x0 and 0xF.
1066:cpu/STM32F103/stm32f10x_tim.c **** * Output         : None
1067:cpu/STM32F103/stm32f10x_tim.c **** * Return         : None
1068:cpu/STM32F103/stm32f10x_tim.c **** *******************************************************************************/
1069:cpu/STM32F103/stm32f10x_tim.c **** void TIM_TIxExternalClockConfig(TIM_TypeDef* TIMx, u16 TIM_TIxExternalCLKSource,
1070:cpu/STM32F103/stm32f10x_tim.c ****                                 u16 TIM_ICPolarity, u16 ICFilter)
1071:cpu/STM32F103/stm32f10x_tim.c **** {
1072:cpu/STM32F103/stm32f10x_tim.c ****   /* Check the parameters */
1073:cpu/STM32F103/stm32f10x_tim.c ****   assert_param(IS_TIM_123458_PERIPH(TIMx));
1074:cpu/STM32F103/stm32f10x_tim.c ****   assert_param(IS_TIM_TIXCLK_SOURCE(TIM_TIxExternalCLKSource));
1075:cpu/STM32F103/stm32f10x_tim.c ****   assert_param(IS_TIM_IC_POLARITY(TIM_ICPolarity));
1076:cpu/STM32F103/stm32f10x_tim.c ****   assert_param(IS_TIM_IC_FILTER(ICFilter));
1077:cpu/STM32F103/stm32f10x_tim.c **** 
1078:cpu/STM32F103/stm32f10x_tim.c ****   /* Configure the Timer Input Clock Source */
1079:cpu/STM32F103/stm32f10x_tim.c ****   if (TIM_TIxExternalCLKSource == TIM_TIxExternalCLK1Source_TI2)
1080:cpu/STM32F103/stm32f10x_tim.c ****   {
1081:cpu/STM32F103/stm32f10x_tim.c ****     TI2_Config(TIMx, TIM_ICPolarity, TIM_ICSelection_DirectTI, ICFilter);
1082:cpu/STM32F103/stm32f10x_tim.c ****   }
1083:cpu/STM32F103/stm32f10x_tim.c ****   else
1084:cpu/STM32F103/stm32f10x_tim.c ****   {
1085:cpu/STM32F103/stm32f10x_tim.c ****     TI1_Config(TIMx, TIM_ICPolarity, TIM_ICSelection_DirectTI, ICFilter);
1086:cpu/STM32F103/stm32f10x_tim.c ****   }
1087:cpu/STM32F103/stm32f10x_tim.c **** 
1088:cpu/STM32F103/stm32f10x_tim.c ****   /* Select the Trigger source */
1089:cpu/STM32F103/stm32f10x_tim.c ****   TIM_SelectInputTrigger(TIMx, TIM_TIxExternalCLKSource);
1090:cpu/STM32F103/stm32f10x_tim.c **** 
1091:cpu/STM32F103/stm32f10x_tim.c ****   /* Select the External clock mode1 */
1092:cpu/STM32F103/stm32f10x_tim.c ****   TIMx->SMCR |= TIM_SlaveMode_External1;
1093:cpu/STM32F103/stm32f10x_tim.c **** }
1094:cpu/STM32F103/stm32f10x_tim.c **** 
1095:cpu/STM32F103/stm32f10x_tim.c **** /*******************************************************************************
1096:cpu/STM32F103/stm32f10x_tim.c **** * Function Name  : TIM_ETRClockMode1Config
1097:cpu/STM32F103/stm32f10x_tim.c **** * Description    : Configures the External clock Mode1
1098:cpu/STM32F103/stm32f10x_tim.c **** * Input          : - TIMx: where x can be  1, 2, 3, 4, 5 or 8 to select the TIM 
1099:cpu/STM32F103/stm32f10x_tim.c **** *                    peripheral.
1100:cpu/STM32F103/stm32f10x_tim.c **** *                  - TIM_ExtTRGPrescaler: The external Trigger Prescaler.
1101:cpu/STM32F103/stm32f10x_tim.c **** *                    It can be one of the following values:
1102:cpu/STM32F103/stm32f10x_tim.c **** *                       - TIM_ExtTRGPSC_OFF
1103:cpu/STM32F103/stm32f10x_tim.c **** *                       - TIM_ExtTRGPSC_DIV2
1104:cpu/STM32F103/stm32f10x_tim.c **** *                       - TIM_ExtTRGPSC_DIV4
1105:cpu/STM32F103/stm32f10x_tim.c **** *                       - TIM_ExtTRGPSC_DIV8.
1106:cpu/STM32F103/stm32f10x_tim.c **** *                  - TIM_ExtTRGPolarity: The external Trigger Polarity.
1107:cpu/STM32F103/stm32f10x_tim.c **** *                    It can be one of the following values:
1108:cpu/STM32F103/stm32f10x_tim.c **** *                       - TIM_ExtTRGPolarity_Inverted
1109:cpu/STM32F103/stm32f10x_tim.c **** *                       - TIM_ExtTRGPolarity_NonInverted
1110:cpu/STM32F103/stm32f10x_tim.c **** *                  - ExtTRGFilter: External Trigger Filter.
1111:cpu/STM32F103/stm32f10x_tim.c **** *                    This parameter must be a value between 0x00 and 0x0F
1112:cpu/STM32F103/stm32f10x_tim.c **** * Output         : None
1113:cpu/STM32F103/stm32f10x_tim.c **** * Return         : None
1114:cpu/STM32F103/stm32f10x_tim.c **** *******************************************************************************/
1115:cpu/STM32F103/stm32f10x_tim.c **** void TIM_ETRClockMode1Config(TIM_TypeDef* TIMx, u16 TIM_ExtTRGPrescaler, u16 TIM_ExtTRGPolarity,
1116:cpu/STM32F103/stm32f10x_tim.c ****                              u16 ExtTRGFilter)
1117:cpu/STM32F103/stm32f10x_tim.c **** {
1118:cpu/STM32F103/stm32f10x_tim.c ****   u16 tmpsmcr = 0;
1119:cpu/STM32F103/stm32f10x_tim.c **** 
1120:cpu/STM32F103/stm32f10x_tim.c ****   /* Check the parameters */
1121:cpu/STM32F103/stm32f10x_tim.c ****   assert_param(IS_TIM_123458_PERIPH(TIMx));
1122:cpu/STM32F103/stm32f10x_tim.c ****   assert_param(IS_TIM_EXT_PRESCALER(TIM_ExtTRGPrescaler));
1123:cpu/STM32F103/stm32f10x_tim.c ****   assert_param(IS_TIM_EXT_POLARITY(TIM_ExtTRGPolarity));
1124:cpu/STM32F103/stm32f10x_tim.c ****   assert_param(IS_TIM_EXT_FILTER(ExtTRGFilter));
1125:cpu/STM32F103/stm32f10x_tim.c **** 
1126:cpu/STM32F103/stm32f10x_tim.c ****   /* Configure the ETR Clock source */
1127:cpu/STM32F103/stm32f10x_tim.c ****   TIM_ETRConfig(TIMx, TIM_ExtTRGPrescaler, TIM_ExtTRGPolarity, ExtTRGFilter);
1128:cpu/STM32F103/stm32f10x_tim.c ****   
1129:cpu/STM32F103/stm32f10x_tim.c ****   /* Get the TIMx SMCR register value */
1130:cpu/STM32F103/stm32f10x_tim.c ****   tmpsmcr = TIMx->SMCR;
1131:cpu/STM32F103/stm32f10x_tim.c **** 
1132:cpu/STM32F103/stm32f10x_tim.c ****   /* Reset the SMS Bits */
1133:cpu/STM32F103/stm32f10x_tim.c ****   tmpsmcr &= SMCR_SMS_Mask;
1134:cpu/STM32F103/stm32f10x_tim.c ****   /* Select the External clock mode1 */
1135:cpu/STM32F103/stm32f10x_tim.c ****   tmpsmcr |= TIM_SlaveMode_External1;
1136:cpu/STM32F103/stm32f10x_tim.c **** 
1137:cpu/STM32F103/stm32f10x_tim.c ****   /* Select the Trigger selection : ETRF */
1138:cpu/STM32F103/stm32f10x_tim.c ****   tmpsmcr &= SMCR_TS_Mask;
1139:cpu/STM32F103/stm32f10x_tim.c ****   tmpsmcr |= TIM_TS_ETRF;
1140:cpu/STM32F103/stm32f10x_tim.c **** 
1141:cpu/STM32F103/stm32f10x_tim.c ****   /* Write to TIMx SMCR */
1142:cpu/STM32F103/stm32f10x_tim.c ****   TIMx->SMCR = tmpsmcr;
1143:cpu/STM32F103/stm32f10x_tim.c **** }
1144:cpu/STM32F103/stm32f10x_tim.c **** 
1145:cpu/STM32F103/stm32f10x_tim.c **** /*******************************************************************************
1146:cpu/STM32F103/stm32f10x_tim.c **** * Function Name  : TIM_ETRClockMode2Config
1147:cpu/STM32F103/stm32f10x_tim.c **** * Description    : Configures the External clock Mode2
1148:cpu/STM32F103/stm32f10x_tim.c **** * Input          : - TIMx: where x can be  1, 2, 3, 4, 5 or 8 to select the TIM 
1149:cpu/STM32F103/stm32f10x_tim.c **** *                    peripheral.
1150:cpu/STM32F103/stm32f10x_tim.c **** *                  - TIM_ExtTRGPrescaler: The external Trigger Prescaler.
1151:cpu/STM32F103/stm32f10x_tim.c **** *                    It can be one of the following values:
1152:cpu/STM32F103/stm32f10x_tim.c **** *                       - TIM_ExtTRGPSC_OFF
1153:cpu/STM32F103/stm32f10x_tim.c **** *                       - TIM_ExtTRGPSC_DIV2
1154:cpu/STM32F103/stm32f10x_tim.c **** *                       - TIM_ExtTRGPSC_DIV4
1155:cpu/STM32F103/stm32f10x_tim.c **** *                       - TIM_ExtTRGPSC_DIV8
1156:cpu/STM32F103/stm32f10x_tim.c **** *                  - TIM_ExtTRGPolarity: The external Trigger Polarity.
1157:cpu/STM32F103/stm32f10x_tim.c **** *                    It can be one of the following values:
1158:cpu/STM32F103/stm32f10x_tim.c **** *                       - TIM_ExtTRGPolarity_Inverted
1159:cpu/STM32F103/stm32f10x_tim.c **** *                       - TIM_ExtTRGPolarity_NonInverted
1160:cpu/STM32F103/stm32f10x_tim.c **** *                  - ExtTRGFilter: External Trigger Filter.
1161:cpu/STM32F103/stm32f10x_tim.c **** *                    This parameter must be a value between 0x00 and 0x0F
1162:cpu/STM32F103/stm32f10x_tim.c **** * Output         : None
1163:cpu/STM32F103/stm32f10x_tim.c **** * Return         : None
1164:cpu/STM32F103/stm32f10x_tim.c **** *******************************************************************************/
1165:cpu/STM32F103/stm32f10x_tim.c **** void TIM_ETRClockMode2Config(TIM_TypeDef* TIMx, u16 TIM_ExtTRGPrescaler, 
1166:cpu/STM32F103/stm32f10x_tim.c ****                              u16 TIM_ExtTRGPolarity, u16 ExtTRGFilter)
1167:cpu/STM32F103/stm32f10x_tim.c **** {
1168:cpu/STM32F103/stm32f10x_tim.c ****   /* Check the parameters */
1169:cpu/STM32F103/stm32f10x_tim.c ****   assert_param(IS_TIM_123458_PERIPH(TIMx));
1170:cpu/STM32F103/stm32f10x_tim.c ****   assert_param(IS_TIM_EXT_PRESCALER(TIM_ExtTRGPrescaler));
1171:cpu/STM32F103/stm32f10x_tim.c ****   assert_param(IS_TIM_EXT_POLARITY(TIM_ExtTRGPolarity));
1172:cpu/STM32F103/stm32f10x_tim.c ****   assert_param(IS_TIM_EXT_FILTER(ExtTRGFilter));
1173:cpu/STM32F103/stm32f10x_tim.c **** 
1174:cpu/STM32F103/stm32f10x_tim.c ****   /* Configure the ETR Clock source */
1175:cpu/STM32F103/stm32f10x_tim.c ****   TIM_ETRConfig(TIMx, TIM_ExtTRGPrescaler, TIM_ExtTRGPolarity, ExtTRGFilter);
1176:cpu/STM32F103/stm32f10x_tim.c **** 
1177:cpu/STM32F103/stm32f10x_tim.c ****   /* Enable the External clock mode2 */
1178:cpu/STM32F103/stm32f10x_tim.c ****   TIMx->SMCR |= SMCR_ECE_Set;
1179:cpu/STM32F103/stm32f10x_tim.c **** }
1180:cpu/STM32F103/stm32f10x_tim.c **** 
1181:cpu/STM32F103/stm32f10x_tim.c **** /*******************************************************************************
1182:cpu/STM32F103/stm32f10x_tim.c **** * Function Name  : TIM_ETRConfig
1183:cpu/STM32F103/stm32f10x_tim.c **** * Description    : Configures the TIMx External Trigger (ETR).
1184:cpu/STM32F103/stm32f10x_tim.c **** * Input          : - TIMx: where x can be  1, 2, 3, 4, 5 or 8 to select the TIM 
1185:cpu/STM32F103/stm32f10x_tim.c **** *                    peripheral.
1186:cpu/STM32F103/stm32f10x_tim.c **** *                  - TIM_ExtTRGPrescaler: The external Trigger Prescaler.
1187:cpu/STM32F103/stm32f10x_tim.c **** *                    This parameter can be one of the following values:
1188:cpu/STM32F103/stm32f10x_tim.c **** *                       - TIM_ExtTRGPSC_OFF
1189:cpu/STM32F103/stm32f10x_tim.c **** *                       - TIM_ExtTRGPSC_DIV2
1190:cpu/STM32F103/stm32f10x_tim.c **** *                       - TIM_ExtTRGPSC_DIV4
1191:cpu/STM32F103/stm32f10x_tim.c **** *                       - TIM_ExtTRGPSC_DIV8
1192:cpu/STM32F103/stm32f10x_tim.c **** *                  - TIM_ExtTRGPolarity: The external Trigger Polarity.
1193:cpu/STM32F103/stm32f10x_tim.c **** *                    This parameter can be one of the following values:
1194:cpu/STM32F103/stm32f10x_tim.c **** *                       - TIM_ExtTRGPolarity_Inverted
1195:cpu/STM32F103/stm32f10x_tim.c **** *                       - TIM_ExtTRGPolarity_NonInverted
1196:cpu/STM32F103/stm32f10x_tim.c **** *                  - ExtTRGFilter: External Trigger Filter.
1197:cpu/STM32F103/stm32f10x_tim.c **** *                    This parameter must be a value between 0x00 and 0x0F.
1198:cpu/STM32F103/stm32f10x_tim.c **** * Output         : None
1199:cpu/STM32F103/stm32f10x_tim.c **** * Return         : None
1200:cpu/STM32F103/stm32f10x_tim.c **** *******************************************************************************/
1201:cpu/STM32F103/stm32f10x_tim.c **** void TIM_ETRConfig(TIM_TypeDef* TIMx, u16 TIM_ExtTRGPrescaler, u16 TIM_ExtTRGPolarity,
1202:cpu/STM32F103/stm32f10x_tim.c ****                    u16 ExtTRGFilter)
1203:cpu/STM32F103/stm32f10x_tim.c **** {
1204:cpu/STM32F103/stm32f10x_tim.c ****   u16 tmpsmcr = 0;
1205:cpu/STM32F103/stm32f10x_tim.c **** 
1206:cpu/STM32F103/stm32f10x_tim.c ****   /* Check the parameters */
1207:cpu/STM32F103/stm32f10x_tim.c ****   assert_param(IS_TIM_123458_PERIPH(TIMx));
1208:cpu/STM32F103/stm32f10x_tim.c ****   assert_param(IS_TIM_EXT_PRESCALER(TIM_ExtTRGPrescaler));
1209:cpu/STM32F103/stm32f10x_tim.c ****   assert_param(IS_TIM_EXT_POLARITY(TIM_ExtTRGPolarity));
1210:cpu/STM32F103/stm32f10x_tim.c ****   assert_param(IS_TIM_EXT_FILTER(ExtTRGFilter));
1211:cpu/STM32F103/stm32f10x_tim.c **** 
1212:cpu/STM32F103/stm32f10x_tim.c ****   tmpsmcr = TIMx->SMCR;
1213:cpu/STM32F103/stm32f10x_tim.c **** 
1214:cpu/STM32F103/stm32f10x_tim.c ****   /* Reset the ETR Bits */
1215:cpu/STM32F103/stm32f10x_tim.c ****   tmpsmcr &= SMCR_ETR_Mask;
1216:cpu/STM32F103/stm32f10x_tim.c **** 
1217:cpu/STM32F103/stm32f10x_tim.c ****   /* Set the Prescaler, the Filter value and the Polarity */
1218:cpu/STM32F103/stm32f10x_tim.c ****   tmpsmcr |= TIM_ExtTRGPrescaler | TIM_ExtTRGPolarity | (u16)(ExtTRGFilter << 8);
1219:cpu/STM32F103/stm32f10x_tim.c **** 
1220:cpu/STM32F103/stm32f10x_tim.c ****   /* Write to TIMx SMCR */
1221:cpu/STM32F103/stm32f10x_tim.c ****   TIMx->SMCR = tmpsmcr;
1222:cpu/STM32F103/stm32f10x_tim.c **** }
1223:cpu/STM32F103/stm32f10x_tim.c **** 
1224:cpu/STM32F103/stm32f10x_tim.c **** /*******************************************************************************
1225:cpu/STM32F103/stm32f10x_tim.c **** * Function Name  : TIM_PrescalerConfig
1226:cpu/STM32F103/stm32f10x_tim.c **** * Description    : Configures the TIMx Prescaler.
1227:cpu/STM32F103/stm32f10x_tim.c **** * Input          : - TIMx: where x can be  1 to 8 to select the TIM peripheral.
1228:cpu/STM32F103/stm32f10x_tim.c **** *                  - Prescaler: specifies the Prescaler Register value
1229:cpu/STM32F103/stm32f10x_tim.c **** *                  - TIM_PSCReloadMode: specifies the TIM Prescaler Reload mode
1230:cpu/STM32F103/stm32f10x_tim.c **** *                    This parameter can be one of the following values:
1231:cpu/STM32F103/stm32f10x_tim.c **** *                       - TIM_PSCReloadMode_Update: The Prescaler is loaded at
1232:cpu/STM32F103/stm32f10x_tim.c **** *                         the update event.
1233:cpu/STM32F103/stm32f10x_tim.c **** *                       - TIM_PSCReloadMode_Immediate: The Prescaler is loaded
1234:cpu/STM32F103/stm32f10x_tim.c **** *                         immediatly.
1235:cpu/STM32F103/stm32f10x_tim.c **** * Output         : None
1236:cpu/STM32F103/stm32f10x_tim.c **** * Return         : None
1237:cpu/STM32F103/stm32f10x_tim.c **** *******************************************************************************/
1238:cpu/STM32F103/stm32f10x_tim.c **** void TIM_PrescalerConfig(TIM_TypeDef* TIMx, u16 Prescaler, u16 TIM_PSCReloadMode)
1239:cpu/STM32F103/stm32f10x_tim.c **** {
1240:cpu/STM32F103/stm32f10x_tim.c ****   /* Check the parameters */
1241:cpu/STM32F103/stm32f10x_tim.c ****   assert_param(IS_TIM_ALL_PERIPH(TIMx));
1242:cpu/STM32F103/stm32f10x_tim.c ****   assert_param(IS_TIM_PRESCALER_RELOAD(TIM_PSCReloadMode));
1243:cpu/STM32F103/stm32f10x_tim.c **** 
1244:cpu/STM32F103/stm32f10x_tim.c ****   /* Set the Prescaler value */
1245:cpu/STM32F103/stm32f10x_tim.c ****   TIMx->PSC = Prescaler;
1246:cpu/STM32F103/stm32f10x_tim.c **** 
1247:cpu/STM32F103/stm32f10x_tim.c ****   /* Set or reset the UG Bit */
1248:cpu/STM32F103/stm32f10x_tim.c ****   TIMx->EGR = TIM_PSCReloadMode;
1249:cpu/STM32F103/stm32f10x_tim.c **** }
1250:cpu/STM32F103/stm32f10x_tim.c **** 
1251:cpu/STM32F103/stm32f10x_tim.c **** /*******************************************************************************
1252:cpu/STM32F103/stm32f10x_tim.c **** * Function Name  : TIM_CounterModeConfig
1253:cpu/STM32F103/stm32f10x_tim.c **** * Description    : Specifies the TIMx Counter Mode to be used.
1254:cpu/STM32F103/stm32f10x_tim.c **** * Input          : - TIMx: where x can be  1, 2, 3, 4, 5 or 8 to select the TIM 
1255:cpu/STM32F103/stm32f10x_tim.c **** *                    peripheral.
1256:cpu/STM32F103/stm32f10x_tim.c **** *                  - TIM_CounterMode: specifies the Counter Mode to be used
1257:cpu/STM32F103/stm32f10x_tim.c **** *                    This parameter can be one of the following values:
1258:cpu/STM32F103/stm32f10x_tim.c **** *                       - TIM_CounterMode_Up: TIM Up Counting Mode
1259:cpu/STM32F103/stm32f10x_tim.c **** *                       - TIM_CounterMode_Down: TIM Down Counting Mode
1260:cpu/STM32F103/stm32f10x_tim.c **** *                       - TIM_CounterMode_CenterAligned1: TIM Center Aligned Mode1
1261:cpu/STM32F103/stm32f10x_tim.c **** *                       - TIM_CounterMode_CenterAligned2: TIM Center Aligned Mode2
1262:cpu/STM32F103/stm32f10x_tim.c **** *                       - TIM_CounterMode_CenterAligned3: TIM Center Aligned Mode3
1263:cpu/STM32F103/stm32f10x_tim.c **** * Output         : None
1264:cpu/STM32F103/stm32f10x_tim.c **** * Return         : None
1265:cpu/STM32F103/stm32f10x_tim.c **** *******************************************************************************/
1266:cpu/STM32F103/stm32f10x_tim.c **** void TIM_CounterModeConfig(TIM_TypeDef* TIMx, u16 TIM_CounterMode)
1267:cpu/STM32F103/stm32f10x_tim.c **** {
1268:cpu/STM32F103/stm32f10x_tim.c ****   u16 tmpcr1 = 0;
1269:cpu/STM32F103/stm32f10x_tim.c **** 
1270:cpu/STM32F103/stm32f10x_tim.c ****   /* Check the parameters */
1271:cpu/STM32F103/stm32f10x_tim.c ****   assert_param(IS_TIM_123458_PERIPH(TIMx));
1272:cpu/STM32F103/stm32f10x_tim.c ****   assert_param(IS_TIM_COUNTER_MODE(TIM_CounterMode));
1273:cpu/STM32F103/stm32f10x_tim.c **** 
1274:cpu/STM32F103/stm32f10x_tim.c ****   tmpcr1 = TIMx->CR1;
1275:cpu/STM32F103/stm32f10x_tim.c **** 
1276:cpu/STM32F103/stm32f10x_tim.c ****   /* Reset the CMS and DIR Bits */
1277:cpu/STM32F103/stm32f10x_tim.c ****   tmpcr1 &= CR1_CounterMode_Mask;
1278:cpu/STM32F103/stm32f10x_tim.c **** 
1279:cpu/STM32F103/stm32f10x_tim.c ****   /* Set the Counter Mode */
1280:cpu/STM32F103/stm32f10x_tim.c ****   tmpcr1 |= TIM_CounterMode;
1281:cpu/STM32F103/stm32f10x_tim.c **** 
1282:cpu/STM32F103/stm32f10x_tim.c ****   /* Write to TIMx CR1 register */
1283:cpu/STM32F103/stm32f10x_tim.c ****   TIMx->CR1 = tmpcr1;
1284:cpu/STM32F103/stm32f10x_tim.c **** }
1285:cpu/STM32F103/stm32f10x_tim.c **** 
1286:cpu/STM32F103/stm32f10x_tim.c **** /*******************************************************************************
1287:cpu/STM32F103/stm32f10x_tim.c **** * Function Name  : TIM_SelectInputTrigger
1288:cpu/STM32F103/stm32f10x_tim.c **** * Description    : Selects the Input Trigger source
1289:cpu/STM32F103/stm32f10x_tim.c **** * Input          : - TIMx: where x can be  1, 2, 3, 4, 5 or 8 to select the TIM 
1290:cpu/STM32F103/stm32f10x_tim.c **** *                    peripheral.
1291:cpu/STM32F103/stm32f10x_tim.c **** *                  - TIM_InputTriggerSource: The Input Trigger source.
1292:cpu/STM32F103/stm32f10x_tim.c **** *                    This parameter can be one of the following values:
1293:cpu/STM32F103/stm32f10x_tim.c **** *                       - TIM_TS_ITR0: Internal Trigger 0
1294:cpu/STM32F103/stm32f10x_tim.c **** *                       - TIM_TS_ITR1: Internal Trigger 1
1295:cpu/STM32F103/stm32f10x_tim.c **** *                       - TIM_TS_ITR2: Internal Trigger 2
1296:cpu/STM32F103/stm32f10x_tim.c **** *                       - TIM_TS_ITR3: Internal Trigger 3
1297:cpu/STM32F103/stm32f10x_tim.c **** *                       - TIM_TS_TI1F_ED: TI1 Edge Detector
1298:cpu/STM32F103/stm32f10x_tim.c **** *                       - TIM_TS_TI1FP1: Filtered Timer Input 1
1299:cpu/STM32F103/stm32f10x_tim.c **** *                       - TIM_TS_TI2FP2: Filtered Timer Input 2
1300:cpu/STM32F103/stm32f10x_tim.c **** *                       - TIM_TS_ETRF: External Trigger input
1301:cpu/STM32F103/stm32f10x_tim.c **** * Output         : None
1302:cpu/STM32F103/stm32f10x_tim.c **** * Return         : None
1303:cpu/STM32F103/stm32f10x_tim.c **** *******************************************************************************/
1304:cpu/STM32F103/stm32f10x_tim.c **** void TIM_SelectInputTrigger(TIM_TypeDef* TIMx, u16 TIM_InputTriggerSource)
1305:cpu/STM32F103/stm32f10x_tim.c **** {
1306:cpu/STM32F103/stm32f10x_tim.c ****   u16 tmpsmcr = 0;
1307:cpu/STM32F103/stm32f10x_tim.c **** 
1308:cpu/STM32F103/stm32f10x_tim.c ****   /* Check the parameters */
1309:cpu/STM32F103/stm32f10x_tim.c ****   assert_param(IS_TIM_123458_PERIPH(TIMx));
1310:cpu/STM32F103/stm32f10x_tim.c ****   assert_param(IS_TIM_TRIGGER_SELECTION(TIM_InputTriggerSource));
1311:cpu/STM32F103/stm32f10x_tim.c **** 
1312:cpu/STM32F103/stm32f10x_tim.c ****   /* Get the TIMx SMCR register value */
1313:cpu/STM32F103/stm32f10x_tim.c ****   tmpsmcr = TIMx->SMCR;
1314:cpu/STM32F103/stm32f10x_tim.c **** 
1315:cpu/STM32F103/stm32f10x_tim.c ****   /* Reset the TS Bits */
1316:cpu/STM32F103/stm32f10x_tim.c ****   tmpsmcr &= SMCR_TS_Mask;
1317:cpu/STM32F103/stm32f10x_tim.c **** 
1318:cpu/STM32F103/stm32f10x_tim.c ****   /* Set the Input Trigger source */
1319:cpu/STM32F103/stm32f10x_tim.c ****   tmpsmcr |= TIM_InputTriggerSource;
1320:cpu/STM32F103/stm32f10x_tim.c **** 
1321:cpu/STM32F103/stm32f10x_tim.c ****   /* Write to TIMx SMCR */
1322:cpu/STM32F103/stm32f10x_tim.c ****   TIMx->SMCR = tmpsmcr;
1323:cpu/STM32F103/stm32f10x_tim.c **** }
1324:cpu/STM32F103/stm32f10x_tim.c **** 
1325:cpu/STM32F103/stm32f10x_tim.c **** /*******************************************************************************
1326:cpu/STM32F103/stm32f10x_tim.c **** * Function Name  : TIM_EncoderInterfaceConfig
1327:cpu/STM32F103/stm32f10x_tim.c **** * Description    : Configures the TIMx Encoder Interface.
1328:cpu/STM32F103/stm32f10x_tim.c **** * Input          : - TIMx: where x can be  1, 2, 3, 4, 5 or 8 to select the TIM 
1329:cpu/STM32F103/stm32f10x_tim.c **** *                    peripheral.
1330:cpu/STM32F103/stm32f10x_tim.c **** *                  - TIM_EncoderMode: specifies the TIMx Encoder Mode.
1331:cpu/STM32F103/stm32f10x_tim.c **** *                    This parameter can be one of the following values:
1332:cpu/STM32F103/stm32f10x_tim.c **** *                       - TIM_EncoderMode_TI1: Counter counts on TI1FP1 edge
1333:cpu/STM32F103/stm32f10x_tim.c **** *                         depending on TI2FP2 level.
1334:cpu/STM32F103/stm32f10x_tim.c **** *                       - TIM_EncoderMode_TI2: Counter counts on TI2FP2 edge
1335:cpu/STM32F103/stm32f10x_tim.c **** *                         depending on TI1FP1 level.
1336:cpu/STM32F103/stm32f10x_tim.c **** *                       - TIM_EncoderMode_TI12: Counter counts on both TI1FP1 and
1337:cpu/STM32F103/stm32f10x_tim.c **** *                         TI2FP2 edges depending on the level of the other input.
1338:cpu/STM32F103/stm32f10x_tim.c **** *                  - TIM_IC1Polarity: specifies the IC1 Polarity
1339:cpu/STM32F103/stm32f10x_tim.c **** *                    This parmeter can be one of the following values:
1340:cpu/STM32F103/stm32f10x_tim.c **** *                        - TIM_ICPolarity_Falling: IC Falling edge.
1341:cpu/STM32F103/stm32f10x_tim.c **** *                        - TIM_ICPolarity_Rising: IC Rising edge.
1342:cpu/STM32F103/stm32f10x_tim.c **** *                  - TIM_IC2Polarity: specifies the IC2 Polarity
1343:cpu/STM32F103/stm32f10x_tim.c **** *                    This parmeter can be one of the following values:
1344:cpu/STM32F103/stm32f10x_tim.c **** *                        - TIM_ICPolarity_Falling: IC Falling edge.
1345:cpu/STM32F103/stm32f10x_tim.c **** *                        - TIM_ICPolarity_Rising: IC Rising edge.
1346:cpu/STM32F103/stm32f10x_tim.c **** * Output         : None
1347:cpu/STM32F103/stm32f10x_tim.c **** * Return         : None
1348:cpu/STM32F103/stm32f10x_tim.c **** *******************************************************************************/
1349:cpu/STM32F103/stm32f10x_tim.c **** void TIM_EncoderInterfaceConfig(TIM_TypeDef* TIMx, u16 TIM_EncoderMode,
1350:cpu/STM32F103/stm32f10x_tim.c ****                                 u16 TIM_IC1Polarity, u16 TIM_IC2Polarity)
1351:cpu/STM32F103/stm32f10x_tim.c **** {
1352:cpu/STM32F103/stm32f10x_tim.c ****   u16 tmpsmcr = 0;
1353:cpu/STM32F103/stm32f10x_tim.c ****   u16 tmpccmr1 = 0;
1354:cpu/STM32F103/stm32f10x_tim.c ****   u16 tmpccer = 0;
1355:cpu/STM32F103/stm32f10x_tim.c ****     
1356:cpu/STM32F103/stm32f10x_tim.c ****   /* Check the parameters */
1357:cpu/STM32F103/stm32f10x_tim.c ****   assert_param(IS_TIM_123458_PERIPH(TIMx));
1358:cpu/STM32F103/stm32f10x_tim.c ****   assert_param(IS_TIM_ENCODER_MODE(TIM_EncoderMode));
1359:cpu/STM32F103/stm32f10x_tim.c ****   assert_param(IS_TIM_IC_POLARITY(TIM_IC1Polarity));
1360:cpu/STM32F103/stm32f10x_tim.c ****   assert_param(IS_TIM_IC_POLARITY(TIM_IC2Polarity));
1361:cpu/STM32F103/stm32f10x_tim.c **** 
1362:cpu/STM32F103/stm32f10x_tim.c ****   /* Get the TIMx SMCR register value */
1363:cpu/STM32F103/stm32f10x_tim.c ****   tmpsmcr = TIMx->SMCR;
1364:cpu/STM32F103/stm32f10x_tim.c **** 
1365:cpu/STM32F103/stm32f10x_tim.c ****   /* Get the TIMx CCMR1 register value */
1366:cpu/STM32F103/stm32f10x_tim.c ****   tmpccmr1 = TIMx->CCMR1;
1367:cpu/STM32F103/stm32f10x_tim.c **** 
1368:cpu/STM32F103/stm32f10x_tim.c ****   /* Get the TIMx CCER register value */
1369:cpu/STM32F103/stm32f10x_tim.c ****   tmpccer = TIMx->CCER;
1370:cpu/STM32F103/stm32f10x_tim.c **** 
1371:cpu/STM32F103/stm32f10x_tim.c ****   /* Set the encoder Mode */
1372:cpu/STM32F103/stm32f10x_tim.c ****   tmpsmcr &= SMCR_SMS_Mask;
1373:cpu/STM32F103/stm32f10x_tim.c ****   tmpsmcr |= TIM_EncoderMode;
1374:cpu/STM32F103/stm32f10x_tim.c **** 
1375:cpu/STM32F103/stm32f10x_tim.c ****   /* Select the Capture Compare 1 and the Capture Compare 2 as input */
1376:cpu/STM32F103/stm32f10x_tim.c ****   tmpccmr1 &= CCMR_CC13S_Mask & CCMR_CC24S_Mask;
1377:cpu/STM32F103/stm32f10x_tim.c ****   tmpccmr1 |= CCMR_TI13Direct_Set | CCMR_TI24Direct_Set;
1378:cpu/STM32F103/stm32f10x_tim.c **** 
1379:cpu/STM32F103/stm32f10x_tim.c ****   /* Set the TI1 and the TI2 Polarities */
1380:cpu/STM32F103/stm32f10x_tim.c ****   tmpccer &= CCER_CC1P_Reset & CCER_CC2P_Reset;
1381:cpu/STM32F103/stm32f10x_tim.c ****   tmpccer |= (TIM_IC1Polarity | (u16)(TIM_IC2Polarity << 4));
1382:cpu/STM32F103/stm32f10x_tim.c **** 
1383:cpu/STM32F103/stm32f10x_tim.c ****   /* Write to TIMx SMCR */
1384:cpu/STM32F103/stm32f10x_tim.c ****   TIMx->SMCR = tmpsmcr;
1385:cpu/STM32F103/stm32f10x_tim.c **** 
1386:cpu/STM32F103/stm32f10x_tim.c ****   /* Write to TIMx CCMR1 */
1387:cpu/STM32F103/stm32f10x_tim.c ****   TIMx->CCMR1 = tmpccmr1;
1388:cpu/STM32F103/stm32f10x_tim.c **** 
1389:cpu/STM32F103/stm32f10x_tim.c ****   /* Write to TIMx CCER */
1390:cpu/STM32F103/stm32f10x_tim.c ****   TIMx->CCER = tmpccer;
1391:cpu/STM32F103/stm32f10x_tim.c **** }
1392:cpu/STM32F103/stm32f10x_tim.c **** 
1393:cpu/STM32F103/stm32f10x_tim.c **** /*******************************************************************************
1394:cpu/STM32F103/stm32f10x_tim.c **** * Function Name  : TIM_ForcedOC1Config
1395:cpu/STM32F103/stm32f10x_tim.c **** * Description    : Forces the TIMx output 1 waveform to active or inactive level.
1396:cpu/STM32F103/stm32f10x_tim.c **** * Input          : - TIMx: where x can be  1, 2, 3, 4, 5 or 8 to select the TIM 
1397:cpu/STM32F103/stm32f10x_tim.c **** *                    peripheral.
1398:cpu/STM32F103/stm32f10x_tim.c **** *                  - TIM_ForcedAction: specifies the forced Action to be set to
1399:cpu/STM32F103/stm32f10x_tim.c **** *                    the output waveform.
1400:cpu/STM32F103/stm32f10x_tim.c **** *                    This parameter can be one of the following values:
1401:cpu/STM32F103/stm32f10x_tim.c **** *                       - TIM_ForcedAction_Active: Force active level on OC1REF
1402:cpu/STM32F103/stm32f10x_tim.c **** *                       - TIM_ForcedAction_InActive: Force inactive level on
1403:cpu/STM32F103/stm32f10x_tim.c **** *                         OC1REF.
1404:cpu/STM32F103/stm32f10x_tim.c **** * Output         : None
1405:cpu/STM32F103/stm32f10x_tim.c **** * Return         : None
1406:cpu/STM32F103/stm32f10x_tim.c **** *******************************************************************************/
1407:cpu/STM32F103/stm32f10x_tim.c **** void TIM_ForcedOC1Config(TIM_TypeDef* TIMx, u16 TIM_ForcedAction)
1408:cpu/STM32F103/stm32f10x_tim.c **** {
1409:cpu/STM32F103/stm32f10x_tim.c ****   u16 tmpccmr1 = 0;
1410:cpu/STM32F103/stm32f10x_tim.c **** 
1411:cpu/STM32F103/stm32f10x_tim.c ****   /* Check the parameters */
1412:cpu/STM32F103/stm32f10x_tim.c ****   assert_param(IS_TIM_123458_PERIPH(TIMx));
1413:cpu/STM32F103/stm32f10x_tim.c ****   assert_param(IS_TIM_FORCED_ACTION(TIM_ForcedAction));
1414:cpu/STM32F103/stm32f10x_tim.c **** 
1415:cpu/STM32F103/stm32f10x_tim.c ****   tmpccmr1 = TIMx->CCMR1;
1416:cpu/STM32F103/stm32f10x_tim.c **** 
1417:cpu/STM32F103/stm32f10x_tim.c ****   /* Reset the OC1M Bits */
1418:cpu/STM32F103/stm32f10x_tim.c ****   tmpccmr1 &= CCMR_OC13M_Mask;
1419:cpu/STM32F103/stm32f10x_tim.c **** 
1420:cpu/STM32F103/stm32f10x_tim.c ****   /* Configure The Forced output Mode */
1421:cpu/STM32F103/stm32f10x_tim.c ****   tmpccmr1 |= TIM_ForcedAction;
1422:cpu/STM32F103/stm32f10x_tim.c **** 
1423:cpu/STM32F103/stm32f10x_tim.c ****   /* Write to TIMx CCMR1 register */
1424:cpu/STM32F103/stm32f10x_tim.c ****   TIMx->CCMR1 = tmpccmr1;
1425:cpu/STM32F103/stm32f10x_tim.c **** }
1426:cpu/STM32F103/stm32f10x_tim.c **** 
1427:cpu/STM32F103/stm32f10x_tim.c **** /*******************************************************************************
1428:cpu/STM32F103/stm32f10x_tim.c **** * Function Name  : TIM_ForcedOC2Config
1429:cpu/STM32F103/stm32f10x_tim.c **** * Description    : Forces the TIMx output 2 waveform to active or inactive level.
1430:cpu/STM32F103/stm32f10x_tim.c **** * Input          : - TIMx: where x can be  1, 2, 3, 4, 5 or 8 to select the TIM 
1431:cpu/STM32F103/stm32f10x_tim.c **** *                    peripheral.
1432:cpu/STM32F103/stm32f10x_tim.c **** *                  - TIM_ForcedAction: specifies the forced Action to be set to
1433:cpu/STM32F103/stm32f10x_tim.c **** *                    the output waveform.
1434:cpu/STM32F103/stm32f10x_tim.c **** *                    This parameter can be one of the following values:
1435:cpu/STM32F103/stm32f10x_tim.c **** *                       - TIM_ForcedAction_Active: Force active level on OC2REF
1436:cpu/STM32F103/stm32f10x_tim.c **** *                       - TIM_ForcedAction_InActive: Force inactive level on
1437:cpu/STM32F103/stm32f10x_tim.c **** *                         OC2REF.
1438:cpu/STM32F103/stm32f10x_tim.c **** * Output         : None
1439:cpu/STM32F103/stm32f10x_tim.c **** * Return         : None
1440:cpu/STM32F103/stm32f10x_tim.c **** *******************************************************************************/
1441:cpu/STM32F103/stm32f10x_tim.c **** void TIM_ForcedOC2Config(TIM_TypeDef* TIMx, u16 TIM_ForcedAction)
1442:cpu/STM32F103/stm32f10x_tim.c **** {
1443:cpu/STM32F103/stm32f10x_tim.c ****   u16 tmpccmr1 = 0;
1444:cpu/STM32F103/stm32f10x_tim.c **** 
1445:cpu/STM32F103/stm32f10x_tim.c ****   /* Check the parameters */
1446:cpu/STM32F103/stm32f10x_tim.c ****   assert_param(IS_TIM_123458_PERIPH(TIMx));
1447:cpu/STM32F103/stm32f10x_tim.c ****   assert_param(IS_TIM_FORCED_ACTION(TIM_ForcedAction));
1448:cpu/STM32F103/stm32f10x_tim.c **** 
1449:cpu/STM32F103/stm32f10x_tim.c ****   tmpccmr1 = TIMx->CCMR1;
1450:cpu/STM32F103/stm32f10x_tim.c **** 
1451:cpu/STM32F103/stm32f10x_tim.c ****   /* Reset the OC2M Bits */
1452:cpu/STM32F103/stm32f10x_tim.c ****   tmpccmr1 &= CCMR_OC24M_Mask;
1453:cpu/STM32F103/stm32f10x_tim.c **** 
1454:cpu/STM32F103/stm32f10x_tim.c ****   /* Configure The Forced output Mode */
1455:cpu/STM32F103/stm32f10x_tim.c ****   tmpccmr1 |= (u16)(TIM_ForcedAction << 8);
1456:cpu/STM32F103/stm32f10x_tim.c **** 
1457:cpu/STM32F103/stm32f10x_tim.c ****   /* Write to TIMx CCMR1 register */
1458:cpu/STM32F103/stm32f10x_tim.c ****   TIMx->CCMR1 = tmpccmr1;
1459:cpu/STM32F103/stm32f10x_tim.c **** }
1460:cpu/STM32F103/stm32f10x_tim.c **** 
1461:cpu/STM32F103/stm32f10x_tim.c **** /*******************************************************************************
1462:cpu/STM32F103/stm32f10x_tim.c **** * Function Name  : TIM_ForcedOC3Config
1463:cpu/STM32F103/stm32f10x_tim.c **** * Description    : Forces the TIMx output 3 waveform to active or inactive level.
1464:cpu/STM32F103/stm32f10x_tim.c **** * Input          : - TIMx: where x can be  1, 2, 3, 4, 5 or 8 to select the TIM 
1465:cpu/STM32F103/stm32f10x_tim.c **** *                    peripheral.
1466:cpu/STM32F103/stm32f10x_tim.c **** *                  - TIM_ForcedAction: specifies the forced Action to be set to
1467:cpu/STM32F103/stm32f10x_tim.c **** *                    the output waveform.
1468:cpu/STM32F103/stm32f10x_tim.c **** *                    This parameter can be one of the following values:
1469:cpu/STM32F103/stm32f10x_tim.c **** *                       - TIM_ForcedAction_Active: Force active level on OC3REF
1470:cpu/STM32F103/stm32f10x_tim.c **** *                       - TIM_ForcedAction_InActive: Force inactive level on
1471:cpu/STM32F103/stm32f10x_tim.c **** *                         OC3REF.
1472:cpu/STM32F103/stm32f10x_tim.c **** * Output         : None
1473:cpu/STM32F103/stm32f10x_tim.c **** * Return         : None
1474:cpu/STM32F103/stm32f10x_tim.c **** *******************************************************************************/
1475:cpu/STM32F103/stm32f10x_tim.c **** void TIM_ForcedOC3Config(TIM_TypeDef* TIMx, u16 TIM_ForcedAction)
1476:cpu/STM32F103/stm32f10x_tim.c **** {
1477:cpu/STM32F103/stm32f10x_tim.c ****   u16 tmpccmr2 = 0;
1478:cpu/STM32F103/stm32f10x_tim.c **** 
1479:cpu/STM32F103/stm32f10x_tim.c ****   /* Check the parameters */
1480:cpu/STM32F103/stm32f10x_tim.c ****   assert_param(IS_TIM_123458_PERIPH(TIMx));
1481:cpu/STM32F103/stm32f10x_tim.c ****   assert_param(IS_TIM_FORCED_ACTION(TIM_ForcedAction));
1482:cpu/STM32F103/stm32f10x_tim.c **** 
1483:cpu/STM32F103/stm32f10x_tim.c ****   tmpccmr2 = TIMx->CCMR2;
1484:cpu/STM32F103/stm32f10x_tim.c **** 
1485:cpu/STM32F103/stm32f10x_tim.c ****   /* Reset the OC1M Bits */
1486:cpu/STM32F103/stm32f10x_tim.c ****   tmpccmr2 &= CCMR_OC13M_Mask;
1487:cpu/STM32F103/stm32f10x_tim.c **** 
1488:cpu/STM32F103/stm32f10x_tim.c ****   /* Configure The Forced output Mode */
1489:cpu/STM32F103/stm32f10x_tim.c ****   tmpccmr2 |= TIM_ForcedAction;
1490:cpu/STM32F103/stm32f10x_tim.c **** 
1491:cpu/STM32F103/stm32f10x_tim.c ****   /* Write to TIMx CCMR2 register */
1492:cpu/STM32F103/stm32f10x_tim.c ****   TIMx->CCMR2 = tmpccmr2;
1493:cpu/STM32F103/stm32f10x_tim.c **** }
1494:cpu/STM32F103/stm32f10x_tim.c **** 
1495:cpu/STM32F103/stm32f10x_tim.c **** /*******************************************************************************
1496:cpu/STM32F103/stm32f10x_tim.c **** * Function Name  : TIM_ForcedOC4Config
1497:cpu/STM32F103/stm32f10x_tim.c **** * Description    : Forces the TIMx output 4 waveform to active or inactive level.
1498:cpu/STM32F103/stm32f10x_tim.c **** * Input          : - TIMx: where x can be  1, 2, 3, 4, 5 or 8 to select the TIM 
1499:cpu/STM32F103/stm32f10x_tim.c **** *                    peripheral.
1500:cpu/STM32F103/stm32f10x_tim.c **** *                  - TIM_ForcedAction: specifies the forced Action to be set to
1501:cpu/STM32F103/stm32f10x_tim.c **** *                    the output waveform.
1502:cpu/STM32F103/stm32f10x_tim.c **** *                    This parameter can be one of the following values:
1503:cpu/STM32F103/stm32f10x_tim.c **** *                       - TIM_ForcedAction_Active: Force active level on OC4REF
1504:cpu/STM32F103/stm32f10x_tim.c **** *                       - TIM_ForcedAction_InActive: Force inactive level on
1505:cpu/STM32F103/stm32f10x_tim.c **** *                         OC4REF.
1506:cpu/STM32F103/stm32f10x_tim.c **** * Output         : None
1507:cpu/STM32F103/stm32f10x_tim.c **** * Return         : None
1508:cpu/STM32F103/stm32f10x_tim.c **** *******************************************************************************/
1509:cpu/STM32F103/stm32f10x_tim.c **** void TIM_ForcedOC4Config(TIM_TypeDef* TIMx, u16 TIM_ForcedAction)
1510:cpu/STM32F103/stm32f10x_tim.c **** {
1511:cpu/STM32F103/stm32f10x_tim.c ****   u16 tmpccmr2 = 0;
1512:cpu/STM32F103/stm32f10x_tim.c **** 
1513:cpu/STM32F103/stm32f10x_tim.c ****   /* Check the parameters */
1514:cpu/STM32F103/stm32f10x_tim.c ****   assert_param(IS_TIM_123458_PERIPH(TIMx));
1515:cpu/STM32F103/stm32f10x_tim.c ****   assert_param(IS_TIM_FORCED_ACTION(TIM_ForcedAction));
1516:cpu/STM32F103/stm32f10x_tim.c ****   tmpccmr2 = TIMx->CCMR2;
1517:cpu/STM32F103/stm32f10x_tim.c **** 
1518:cpu/STM32F103/stm32f10x_tim.c ****   /* Reset the OC2M Bits */
1519:cpu/STM32F103/stm32f10x_tim.c ****   tmpccmr2 &= CCMR_OC24M_Mask;
1520:cpu/STM32F103/stm32f10x_tim.c **** 
1521:cpu/STM32F103/stm32f10x_tim.c ****   /* Configure The Forced output Mode */
1522:cpu/STM32F103/stm32f10x_tim.c ****   tmpccmr2 |= (u16)(TIM_ForcedAction << 8);
1523:cpu/STM32F103/stm32f10x_tim.c **** 
1524:cpu/STM32F103/stm32f10x_tim.c ****   /* Write to TIMx CCMR2 register */
1525:cpu/STM32F103/stm32f10x_tim.c ****   TIMx->CCMR2 = tmpccmr2;
1526:cpu/STM32F103/stm32f10x_tim.c **** }
1527:cpu/STM32F103/stm32f10x_tim.c **** 
1528:cpu/STM32F103/stm32f10x_tim.c **** /*******************************************************************************
1529:cpu/STM32F103/stm32f10x_tim.c **** * Function Name  : TIM_ARRPreloadConfig
1530:cpu/STM32F103/stm32f10x_tim.c **** * Description    : Enables or disables TIMx peripheral Preload register on ARR.
1531:cpu/STM32F103/stm32f10x_tim.c **** * Input          : - TIMx: where x can be  1, 2, 3, 4, 5 or 8 to select the TIM 
1532:cpu/STM32F103/stm32f10x_tim.c **** *                    peripheral.
1533:cpu/STM32F103/stm32f10x_tim.c **** *                  - NewState: new state of the TIMx peripheral Preload register
1534:cpu/STM32F103/stm32f10x_tim.c **** *                    This parameter can be: ENABLE or DISABLE.
1535:cpu/STM32F103/stm32f10x_tim.c **** * Output         : None
1536:cpu/STM32F103/stm32f10x_tim.c **** * Return         : None
1537:cpu/STM32F103/stm32f10x_tim.c **** *******************************************************************************/
1538:cpu/STM32F103/stm32f10x_tim.c **** void TIM_ARRPreloadConfig(TIM_TypeDef* TIMx, FunctionalState NewState)
1539:cpu/STM32F103/stm32f10x_tim.c **** {
1540:cpu/STM32F103/stm32f10x_tim.c ****   /* Check the parameters */
1541:cpu/STM32F103/stm32f10x_tim.c ****   assert_param(IS_TIM_ALL_PERIPH(TIMx));
1542:cpu/STM32F103/stm32f10x_tim.c ****   assert_param(IS_FUNCTIONAL_STATE(NewState));
1543:cpu/STM32F103/stm32f10x_tim.c **** 
1544:cpu/STM32F103/stm32f10x_tim.c ****   if (NewState != DISABLE)
1545:cpu/STM32F103/stm32f10x_tim.c ****   {
1546:cpu/STM32F103/stm32f10x_tim.c ****     /* Set the ARR Preload Bit */
1547:cpu/STM32F103/stm32f10x_tim.c ****     TIMx->CR1 |= CR1_ARPE_Set;
1548:cpu/STM32F103/stm32f10x_tim.c ****   }
1549:cpu/STM32F103/stm32f10x_tim.c ****   else
1550:cpu/STM32F103/stm32f10x_tim.c ****   {
1551:cpu/STM32F103/stm32f10x_tim.c ****     /* Reset the ARR Preload Bit */
1552:cpu/STM32F103/stm32f10x_tim.c ****     TIMx->CR1 &= CR1_ARPE_Reset;
1553:cpu/STM32F103/stm32f10x_tim.c ****   }
1554:cpu/STM32F103/stm32f10x_tim.c **** }
1555:cpu/STM32F103/stm32f10x_tim.c **** 
1556:cpu/STM32F103/stm32f10x_tim.c **** /*******************************************************************************
1557:cpu/STM32F103/stm32f10x_tim.c **** * Function Name  : TIM_SelectCOM
1558:cpu/STM32F103/stm32f10x_tim.c **** * Description    : Selects the TIM peripheral Commutation event.
1559:cpu/STM32F103/stm32f10x_tim.c **** * Input          :- TIMx: where x can be  1 or 8 to select the TIMx peripheral
1560:cpu/STM32F103/stm32f10x_tim.c **** *                 - NewState: new state of the Commutation event.
1561:cpu/STM32F103/stm32f10x_tim.c **** *                    This parameter can be: ENABLE or DISABLE.
1562:cpu/STM32F103/stm32f10x_tim.c **** * Output         : None
1563:cpu/STM32F103/stm32f10x_tim.c **** * Return         : None
1564:cpu/STM32F103/stm32f10x_tim.c **** *******************************************************************************/
1565:cpu/STM32F103/stm32f10x_tim.c **** void TIM_SelectCOM(TIM_TypeDef* TIMx, FunctionalState NewState)
1566:cpu/STM32F103/stm32f10x_tim.c **** {
1567:cpu/STM32F103/stm32f10x_tim.c ****   /* Check the parameters */
1568:cpu/STM32F103/stm32f10x_tim.c ****   assert_param(IS_TIM_18_PERIPH(TIMx));
1569:cpu/STM32F103/stm32f10x_tim.c ****   assert_param(IS_FUNCTIONAL_STATE(NewState));
1570:cpu/STM32F103/stm32f10x_tim.c **** 
1571:cpu/STM32F103/stm32f10x_tim.c ****   if (NewState != DISABLE)
1572:cpu/STM32F103/stm32f10x_tim.c ****   {
1573:cpu/STM32F103/stm32f10x_tim.c ****     /* Set the COM Bit */
1574:cpu/STM32F103/stm32f10x_tim.c ****     TIMx->CR2 |= CR2_CCUS_Set;
1575:cpu/STM32F103/stm32f10x_tim.c ****   }
1576:cpu/STM32F103/stm32f10x_tim.c ****   else
1577:cpu/STM32F103/stm32f10x_tim.c ****   {
1578:cpu/STM32F103/stm32f10x_tim.c ****     /* Reset the COM Bit */
1579:cpu/STM32F103/stm32f10x_tim.c ****     TIMx->CR2 &= CR2_CCUS_Reset;
1580:cpu/STM32F103/stm32f10x_tim.c ****   }
1581:cpu/STM32F103/stm32f10x_tim.c **** }
1582:cpu/STM32F103/stm32f10x_tim.c **** 
1583:cpu/STM32F103/stm32f10x_tim.c **** /*******************************************************************************
1584:cpu/STM32F103/stm32f10x_tim.c **** * Function Name  : TIM_SelectCCDMA
1585:cpu/STM32F103/stm32f10x_tim.c **** * Description    : Selects the TIMx peripheral Capture Compare DMA source.
1586:cpu/STM32F103/stm32f10x_tim.c **** * Input          : - TIMx: where x can be  1, 2, 3, 4, 5 or 8 to select the TIM 
1587:cpu/STM32F103/stm32f10x_tim.c **** *                    peripheral.
1588:cpu/STM32F103/stm32f10x_tim.c **** *                  - NewState: new state of the Capture Compare DMA source
1589:cpu/STM32F103/stm32f10x_tim.c **** *                    This parameter can be: ENABLE or DISABLE.
1590:cpu/STM32F103/stm32f10x_tim.c **** * Output         : None
1591:cpu/STM32F103/stm32f10x_tim.c **** * Return         : None
1592:cpu/STM32F103/stm32f10x_tim.c **** *******************************************************************************/
1593:cpu/STM32F103/stm32f10x_tim.c **** void TIM_SelectCCDMA(TIM_TypeDef* TIMx, FunctionalState NewState)
1594:cpu/STM32F103/stm32f10x_tim.c **** {
1595:cpu/STM32F103/stm32f10x_tim.c ****   /* Check the parameters */
1596:cpu/STM32F103/stm32f10x_tim.c ****   assert_param(IS_TIM_123458_PERIPH(TIMx));
1597:cpu/STM32F103/stm32f10x_tim.c ****   assert_param(IS_FUNCTIONAL_STATE(NewState));
1598:cpu/STM32F103/stm32f10x_tim.c **** 
1599:cpu/STM32F103/stm32f10x_tim.c ****   if (NewState != DISABLE)
1600:cpu/STM32F103/stm32f10x_tim.c ****   {
1601:cpu/STM32F103/stm32f10x_tim.c ****     /* Set the CCDS Bit */
1602:cpu/STM32F103/stm32f10x_tim.c ****     TIMx->CR2 |= CR2_CCDS_Set;
1603:cpu/STM32F103/stm32f10x_tim.c ****   }
1604:cpu/STM32F103/stm32f10x_tim.c ****   else
1605:cpu/STM32F103/stm32f10x_tim.c ****   {
1606:cpu/STM32F103/stm32f10x_tim.c ****     /* Reset the CCDS Bit */
1607:cpu/STM32F103/stm32f10x_tim.c ****     TIMx->CR2 &= CR2_CCDS_Reset;
1608:cpu/STM32F103/stm32f10x_tim.c ****   }
1609:cpu/STM32F103/stm32f10x_tim.c **** }
1610:cpu/STM32F103/stm32f10x_tim.c **** 
1611:cpu/STM32F103/stm32f10x_tim.c **** /*******************************************************************************
1612:cpu/STM32F103/stm32f10x_tim.c **** * Function Name  : TIM_CCPreloadControl
1613:cpu/STM32F103/stm32f10x_tim.c **** * Description    : Sets or Resets the TIM peripheral Capture Compare Preload 
1614:cpu/STM32F103/stm32f10x_tim.c **** *                  Control bit.
1615:cpu/STM32F103/stm32f10x_tim.c **** * Input          :- TIMx: where x can be  1 or 8 to select the TIMx peripheral
1616:cpu/STM32F103/stm32f10x_tim.c **** *                 - NewState: new state of the Capture Compare Preload Control bit
1617:cpu/STM32F103/stm32f10x_tim.c **** *                    This parameter can be: ENABLE or DISABLE.
1618:cpu/STM32F103/stm32f10x_tim.c **** * Output         : None
1619:cpu/STM32F103/stm32f10x_tim.c **** * Return         : None
1620:cpu/STM32F103/stm32f10x_tim.c **** *******************************************************************************/
1621:cpu/STM32F103/stm32f10x_tim.c **** void TIM_CCPreloadControl(TIM_TypeDef* TIMx, FunctionalState NewState)
1622:cpu/STM32F103/stm32f10x_tim.c **** { 
1623:cpu/STM32F103/stm32f10x_tim.c ****   /* Check the parameters */
1624:cpu/STM32F103/stm32f10x_tim.c ****   assert_param(IS_TIM_18_PERIPH(TIMx));
1625:cpu/STM32F103/stm32f10x_tim.c ****   assert_param(IS_FUNCTIONAL_STATE(NewState));
1626:cpu/STM32F103/stm32f10x_tim.c **** 
1627:cpu/STM32F103/stm32f10x_tim.c ****   if (NewState != DISABLE)
1628:cpu/STM32F103/stm32f10x_tim.c ****   {
1629:cpu/STM32F103/stm32f10x_tim.c ****     /* Set the CCPC Bit */
1630:cpu/STM32F103/stm32f10x_tim.c ****     TIMx->CR2 |= CR2_CCPC_Set;
1631:cpu/STM32F103/stm32f10x_tim.c ****   }
1632:cpu/STM32F103/stm32f10x_tim.c ****   else
1633:cpu/STM32F103/stm32f10x_tim.c ****   {
1634:cpu/STM32F103/stm32f10x_tim.c ****     /* Reset the CCPC Bit */
1635:cpu/STM32F103/stm32f10x_tim.c ****     TIMx->CR2 &= CR2_CCPC_Reset;
1636:cpu/STM32F103/stm32f10x_tim.c ****   }
1637:cpu/STM32F103/stm32f10x_tim.c **** }
1638:cpu/STM32F103/stm32f10x_tim.c **** 
1639:cpu/STM32F103/stm32f10x_tim.c **** /*******************************************************************************
1640:cpu/STM32F103/stm32f10x_tim.c **** * Function Name  : TIM_OC1PreloadConfig
1641:cpu/STM32F103/stm32f10x_tim.c **** * Description    : Enables or disables the TIMx peripheral Preload register on CCR1.
1642:cpu/STM32F103/stm32f10x_tim.c **** * Input          : - TIMx: where x can be  1, 2, 3, 4, 5 or 8 to select the TIM 
1643:cpu/STM32F103/stm32f10x_tim.c **** *                    peripheral.
1644:cpu/STM32F103/stm32f10x_tim.c **** *                  - TIM_OCPreload: new state of the TIMx peripheral Preload
1645:cpu/STM32F103/stm32f10x_tim.c **** *                    register
1646:cpu/STM32F103/stm32f10x_tim.c **** *                    This parameter can be one of the following values:
1647:cpu/STM32F103/stm32f10x_tim.c **** *                       - TIM_OCPreload_Enable
1648:cpu/STM32F103/stm32f10x_tim.c **** *                       - TIM_OCPreload_Disable
1649:cpu/STM32F103/stm32f10x_tim.c **** * Output         : None
1650:cpu/STM32F103/stm32f10x_tim.c **** * Return         : None
1651:cpu/STM32F103/stm32f10x_tim.c **** *******************************************************************************/
1652:cpu/STM32F103/stm32f10x_tim.c **** void TIM_OC1PreloadConfig(TIM_TypeDef* TIMx, u16 TIM_OCPreload)
1653:cpu/STM32F103/stm32f10x_tim.c **** {
1654:cpu/STM32F103/stm32f10x_tim.c ****   u16 tmpccmr1 = 0;
1655:cpu/STM32F103/stm32f10x_tim.c **** 
1656:cpu/STM32F103/stm32f10x_tim.c ****   /* Check the parameters */
1657:cpu/STM32F103/stm32f10x_tim.c ****   assert_param(IS_TIM_123458_PERIPH(TIMx));
1658:cpu/STM32F103/stm32f10x_tim.c ****   assert_param(IS_TIM_OCPRELOAD_STATE(TIM_OCPreload));
1659:cpu/STM32F103/stm32f10x_tim.c **** 
1660:cpu/STM32F103/stm32f10x_tim.c ****   tmpccmr1 = TIMx->CCMR1;
1661:cpu/STM32F103/stm32f10x_tim.c **** 
1662:cpu/STM32F103/stm32f10x_tim.c ****   /* Reset the OC1PE Bit */
1663:cpu/STM32F103/stm32f10x_tim.c ****   tmpccmr1 &= CCMR_OC13PE_Reset;
1664:cpu/STM32F103/stm32f10x_tim.c **** 
1665:cpu/STM32F103/stm32f10x_tim.c ****   /* Enable or Disable the Output Compare Preload feature */
1666:cpu/STM32F103/stm32f10x_tim.c ****   tmpccmr1 |= TIM_OCPreload;
1667:cpu/STM32F103/stm32f10x_tim.c **** 
1668:cpu/STM32F103/stm32f10x_tim.c ****   /* Write to TIMx CCMR1 register */
1669:cpu/STM32F103/stm32f10x_tim.c ****   TIMx->CCMR1 = tmpccmr1;
1670:cpu/STM32F103/stm32f10x_tim.c **** }
1671:cpu/STM32F103/stm32f10x_tim.c **** 
1672:cpu/STM32F103/stm32f10x_tim.c **** /*******************************************************************************
1673:cpu/STM32F103/stm32f10x_tim.c **** * Function Name  : TIM_OC2PreloadConfig
1674:cpu/STM32F103/stm32f10x_tim.c **** * Description    : Enables or disables the TIMx peripheral Preload register on CCR2.
1675:cpu/STM32F103/stm32f10x_tim.c **** * Input          : - TIMx: where x can be  1, 2, 3, 4, 5 or 8 to select the TIM 
1676:cpu/STM32F103/stm32f10x_tim.c **** *                    peripheral.
1677:cpu/STM32F103/stm32f10x_tim.c **** *                  - TIM_OCPreload: new state of the TIMx peripheral Preload
1678:cpu/STM32F103/stm32f10x_tim.c **** *                    register
1679:cpu/STM32F103/stm32f10x_tim.c **** *                    This parameter can be one of the following values:
1680:cpu/STM32F103/stm32f10x_tim.c **** *                       - TIM_OCPreload_Enable
1681:cpu/STM32F103/stm32f10x_tim.c **** *                       - TIM_OCPreload_Disable
1682:cpu/STM32F103/stm32f10x_tim.c **** * Output         : None
1683:cpu/STM32F103/stm32f10x_tim.c **** * Return         : None
1684:cpu/STM32F103/stm32f10x_tim.c **** *******************************************************************************/
1685:cpu/STM32F103/stm32f10x_tim.c **** void TIM_OC2PreloadConfig(TIM_TypeDef* TIMx, u16 TIM_OCPreload)
1686:cpu/STM32F103/stm32f10x_tim.c **** {
1687:cpu/STM32F103/stm32f10x_tim.c ****   u16 tmpccmr1 = 0;
1688:cpu/STM32F103/stm32f10x_tim.c **** 
1689:cpu/STM32F103/stm32f10x_tim.c ****   /* Check the parameters */
1690:cpu/STM32F103/stm32f10x_tim.c ****   assert_param(IS_TIM_123458_PERIPH(TIMx));
1691:cpu/STM32F103/stm32f10x_tim.c ****   assert_param(IS_TIM_OCPRELOAD_STATE(TIM_OCPreload));
1692:cpu/STM32F103/stm32f10x_tim.c **** 
1693:cpu/STM32F103/stm32f10x_tim.c ****   tmpccmr1 = TIMx->CCMR1;
1694:cpu/STM32F103/stm32f10x_tim.c **** 
1695:cpu/STM32F103/stm32f10x_tim.c ****   /* Reset the OC2PE Bit */
1696:cpu/STM32F103/stm32f10x_tim.c ****   tmpccmr1 &= CCMR_OC24PE_Reset;
1697:cpu/STM32F103/stm32f10x_tim.c **** 
1698:cpu/STM32F103/stm32f10x_tim.c ****   /* Enable or Disable the Output Compare Preload feature */
1699:cpu/STM32F103/stm32f10x_tim.c ****   tmpccmr1 |= (u16)(TIM_OCPreload << 8);
1700:cpu/STM32F103/stm32f10x_tim.c **** 
1701:cpu/STM32F103/stm32f10x_tim.c ****   /* Write to TIMx CCMR1 register */
1702:cpu/STM32F103/stm32f10x_tim.c ****   TIMx->CCMR1 = tmpccmr1;
1703:cpu/STM32F103/stm32f10x_tim.c **** }
1704:cpu/STM32F103/stm32f10x_tim.c **** 
1705:cpu/STM32F103/stm32f10x_tim.c **** /*******************************************************************************
1706:cpu/STM32F103/stm32f10x_tim.c **** * Function Name  : TIM_OC3PreloadConfig
1707:cpu/STM32F103/stm32f10x_tim.c **** * Description    : Enables or disables the TIMx peripheral Preload register on CCR3.
1708:cpu/STM32F103/stm32f10x_tim.c **** * Input          : - TIMx: where x can be  1, 2, 3, 4, 5 or 8 to select the TIM 
1709:cpu/STM32F103/stm32f10x_tim.c **** *                    peripheral.
1710:cpu/STM32F103/stm32f10x_tim.c **** *                  - TIM_OCPreload: new state of the TIMx peripheral Preload
1711:cpu/STM32F103/stm32f10x_tim.c **** *                    register
1712:cpu/STM32F103/stm32f10x_tim.c **** *                    This parameter can be one of the following values:
1713:cpu/STM32F103/stm32f10x_tim.c **** *                       - TIM_OCPreload_Enable
1714:cpu/STM32F103/stm32f10x_tim.c **** *                       - TIM_OCPreload_Disable
1715:cpu/STM32F103/stm32f10x_tim.c **** * Output         : None
1716:cpu/STM32F103/stm32f10x_tim.c **** * Return         : None
1717:cpu/STM32F103/stm32f10x_tim.c **** *******************************************************************************/
1718:cpu/STM32F103/stm32f10x_tim.c **** void TIM_OC3PreloadConfig(TIM_TypeDef* TIMx, u16 TIM_OCPreload)
1719:cpu/STM32F103/stm32f10x_tim.c **** {
1720:cpu/STM32F103/stm32f10x_tim.c ****   u16 tmpccmr2 = 0;
1721:cpu/STM32F103/stm32f10x_tim.c **** 
1722:cpu/STM32F103/stm32f10x_tim.c ****   /* Check the parameters */
1723:cpu/STM32F103/stm32f10x_tim.c ****   assert_param(IS_TIM_123458_PERIPH(TIMx));
1724:cpu/STM32F103/stm32f10x_tim.c ****   assert_param(IS_TIM_OCPRELOAD_STATE(TIM_OCPreload));
1725:cpu/STM32F103/stm32f10x_tim.c **** 
1726:cpu/STM32F103/stm32f10x_tim.c ****   tmpccmr2 = TIMx->CCMR2;
1727:cpu/STM32F103/stm32f10x_tim.c **** 
1728:cpu/STM32F103/stm32f10x_tim.c ****   /* Reset the OC3PE Bit */
1729:cpu/STM32F103/stm32f10x_tim.c ****   tmpccmr2 &= CCMR_OC13PE_Reset;
1730:cpu/STM32F103/stm32f10x_tim.c **** 
1731:cpu/STM32F103/stm32f10x_tim.c ****   /* Enable or Disable the Output Compare Preload feature */
1732:cpu/STM32F103/stm32f10x_tim.c ****   tmpccmr2 |= TIM_OCPreload;
1733:cpu/STM32F103/stm32f10x_tim.c **** 
1734:cpu/STM32F103/stm32f10x_tim.c ****   /* Write to TIMx CCMR2 register */
1735:cpu/STM32F103/stm32f10x_tim.c ****   TIMx->CCMR2 = tmpccmr2;
1736:cpu/STM32F103/stm32f10x_tim.c **** }
1737:cpu/STM32F103/stm32f10x_tim.c **** 
1738:cpu/STM32F103/stm32f10x_tim.c **** /*******************************************************************************
1739:cpu/STM32F103/stm32f10x_tim.c **** * Function Name  : TIM_OC4PreloadConfig
1740:cpu/STM32F103/stm32f10x_tim.c **** * Description    : Enables or disables the TIMx peripheral Preload register on CCR4.
1741:cpu/STM32F103/stm32f10x_tim.c **** * Input          : - TIMx: where x can be  1, 2, 3, 4, 5 or 8 to select the TIM 
1742:cpu/STM32F103/stm32f10x_tim.c **** *                    peripheral.
1743:cpu/STM32F103/stm32f10x_tim.c **** *                  - TIM_OCPreload: new state of the TIMx peripheral Preload
1744:cpu/STM32F103/stm32f10x_tim.c **** *                    register
1745:cpu/STM32F103/stm32f10x_tim.c **** *                    This parameter can be one of the following values:
1746:cpu/STM32F103/stm32f10x_tim.c **** *                       - TIM_OCPreload_Enable
1747:cpu/STM32F103/stm32f10x_tim.c **** *                       - TIM_OCPreload_Disable
1748:cpu/STM32F103/stm32f10x_tim.c **** * Output         : None
1749:cpu/STM32F103/stm32f10x_tim.c **** * Return         : None
1750:cpu/STM32F103/stm32f10x_tim.c **** *******************************************************************************/
1751:cpu/STM32F103/stm32f10x_tim.c **** void TIM_OC4PreloadConfig(TIM_TypeDef* TIMx, u16 TIM_OCPreload)
1752:cpu/STM32F103/stm32f10x_tim.c **** {
1753:cpu/STM32F103/stm32f10x_tim.c ****   u16 tmpccmr2 = 0;
1754:cpu/STM32F103/stm32f10x_tim.c **** 
1755:cpu/STM32F103/stm32f10x_tim.c ****   /* Check the parameters */
1756:cpu/STM32F103/stm32f10x_tim.c ****   assert_param(IS_TIM_123458_PERIPH(TIMx));
1757:cpu/STM32F103/stm32f10x_tim.c ****   assert_param(IS_TIM_OCPRELOAD_STATE(TIM_OCPreload));
1758:cpu/STM32F103/stm32f10x_tim.c **** 
1759:cpu/STM32F103/stm32f10x_tim.c ****   tmpccmr2 = TIMx->CCMR2;
1760:cpu/STM32F103/stm32f10x_tim.c **** 
1761:cpu/STM32F103/stm32f10x_tim.c ****   /* Reset the OC4PE Bit */
1762:cpu/STM32F103/stm32f10x_tim.c ****   tmpccmr2 &= CCMR_OC24PE_Reset;
1763:cpu/STM32F103/stm32f10x_tim.c **** 
1764:cpu/STM32F103/stm32f10x_tim.c ****   /* Enable or Disable the Output Compare Preload feature */
1765:cpu/STM32F103/stm32f10x_tim.c ****   tmpccmr2 |= (u16)(TIM_OCPreload << 8);
1766:cpu/STM32F103/stm32f10x_tim.c **** 
1767:cpu/STM32F103/stm32f10x_tim.c ****   /* Write to TIMx CCMR2 register */
1768:cpu/STM32F103/stm32f10x_tim.c ****   TIMx->CCMR2 = tmpccmr2;
1769:cpu/STM32F103/stm32f10x_tim.c **** }
1770:cpu/STM32F103/stm32f10x_tim.c **** 
1771:cpu/STM32F103/stm32f10x_tim.c **** /*******************************************************************************
1772:cpu/STM32F103/stm32f10x_tim.c **** * Function Name  : TIM_OC1FastConfig
1773:cpu/STM32F103/stm32f10x_tim.c **** * Description    : Configures the TIMx Output Compare 1 Fast feature.
1774:cpu/STM32F103/stm32f10x_tim.c **** * Input          : - TIMx: where x can be  1, 2, 3, 4, 5 or 8 to select the TIM 
1775:cpu/STM32F103/stm32f10x_tim.c **** *                    peripheral.
1776:cpu/STM32F103/stm32f10x_tim.c **** *                  - TIM_OCFast: new state of the Output Compare Fast Enable Bit.
1777:cpu/STM32F103/stm32f10x_tim.c **** *                    This parameter can be one of the following values:
1778:cpu/STM32F103/stm32f10x_tim.c **** *                       - TIM_OCFast_Enable: TIM output compare fast enable
1779:cpu/STM32F103/stm32f10x_tim.c **** *                       - TIM_OCFast_Disable: TIM output compare fast disable
1780:cpu/STM32F103/stm32f10x_tim.c **** * Output         : None
1781:cpu/STM32F103/stm32f10x_tim.c **** * Return         : None
1782:cpu/STM32F103/stm32f10x_tim.c **** *******************************************************************************/
1783:cpu/STM32F103/stm32f10x_tim.c **** void TIM_OC1FastConfig(TIM_TypeDef* TIMx, u16 TIM_OCFast)
1784:cpu/STM32F103/stm32f10x_tim.c **** {
1785:cpu/STM32F103/stm32f10x_tim.c ****   u16 tmpccmr1 = 0;
1786:cpu/STM32F103/stm32f10x_tim.c **** 
1787:cpu/STM32F103/stm32f10x_tim.c ****   /* Check the parameters */
1788:cpu/STM32F103/stm32f10x_tim.c ****   assert_param(IS_TIM_123458_PERIPH(TIMx));
1789:cpu/STM32F103/stm32f10x_tim.c ****   assert_param(IS_TIM_OCFAST_STATE(TIM_OCFast));
1790:cpu/STM32F103/stm32f10x_tim.c **** 
1791:cpu/STM32F103/stm32f10x_tim.c ****   /* Get the TIMx CCMR1 register value */
1792:cpu/STM32F103/stm32f10x_tim.c ****   tmpccmr1 = TIMx->CCMR1;
1793:cpu/STM32F103/stm32f10x_tim.c **** 
1794:cpu/STM32F103/stm32f10x_tim.c ****   /* Reset the OC1FE Bit */
1795:cpu/STM32F103/stm32f10x_tim.c ****   tmpccmr1 &= CCMR_OC13FE_Reset;
1796:cpu/STM32F103/stm32f10x_tim.c **** 
1797:cpu/STM32F103/stm32f10x_tim.c ****   /* Enable or Disable the Output Compare Fast Bit */
1798:cpu/STM32F103/stm32f10x_tim.c ****   tmpccmr1 |= TIM_OCFast;
1799:cpu/STM32F103/stm32f10x_tim.c **** 
1800:cpu/STM32F103/stm32f10x_tim.c ****   /* Write to TIMx CCMR1 */
1801:cpu/STM32F103/stm32f10x_tim.c ****   TIMx->CCMR1 = tmpccmr1;
1802:cpu/STM32F103/stm32f10x_tim.c **** }
1803:cpu/STM32F103/stm32f10x_tim.c **** 
1804:cpu/STM32F103/stm32f10x_tim.c **** /*******************************************************************************
1805:cpu/STM32F103/stm32f10x_tim.c **** * Function Name  : TIM_OC2FastConfig
1806:cpu/STM32F103/stm32f10x_tim.c **** * Description    : Configures the TIMx Output Compare 2 Fast feature.
1807:cpu/STM32F103/stm32f10x_tim.c **** * Input          : - TIMx: where x can be  1, 2, 3, 4, 5 or 8 to select the TIM 
1808:cpu/STM32F103/stm32f10x_tim.c **** *                    peripheral.
1809:cpu/STM32F103/stm32f10x_tim.c **** *                  - TIM_OCFast: new state of the Output Compare Fast Enable Bit.
1810:cpu/STM32F103/stm32f10x_tim.c **** *                    This parameter can be one of the following values:
1811:cpu/STM32F103/stm32f10x_tim.c **** *                       - TIM_OCFast_Enable: TIM output compare fast enable
1812:cpu/STM32F103/stm32f10x_tim.c **** *                       - TIM_OCFast_Disable: TIM output compare fast disable
1813:cpu/STM32F103/stm32f10x_tim.c **** * Output         : None
1814:cpu/STM32F103/stm32f10x_tim.c **** * Return         : None
1815:cpu/STM32F103/stm32f10x_tim.c **** *******************************************************************************/
1816:cpu/STM32F103/stm32f10x_tim.c **** void TIM_OC2FastConfig(TIM_TypeDef* TIMx, u16 TIM_OCFast)
1817:cpu/STM32F103/stm32f10x_tim.c **** {
1818:cpu/STM32F103/stm32f10x_tim.c ****   u16 tmpccmr1 = 0;
1819:cpu/STM32F103/stm32f10x_tim.c **** 
1820:cpu/STM32F103/stm32f10x_tim.c ****   /* Check the parameters */
1821:cpu/STM32F103/stm32f10x_tim.c ****   assert_param(IS_TIM_123458_PERIPH(TIMx));
1822:cpu/STM32F103/stm32f10x_tim.c ****   assert_param(IS_TIM_OCFAST_STATE(TIM_OCFast));
1823:cpu/STM32F103/stm32f10x_tim.c **** 
1824:cpu/STM32F103/stm32f10x_tim.c ****   /* Get the TIMx CCMR1 register value */
1825:cpu/STM32F103/stm32f10x_tim.c ****   tmpccmr1 = TIMx->CCMR1;
1826:cpu/STM32F103/stm32f10x_tim.c **** 
1827:cpu/STM32F103/stm32f10x_tim.c ****   /* Reset the OC2FE Bit */
1828:cpu/STM32F103/stm32f10x_tim.c ****   tmpccmr1 &= CCMR_OC24FE_Reset;
1829:cpu/STM32F103/stm32f10x_tim.c **** 
1830:cpu/STM32F103/stm32f10x_tim.c ****   /* Enable or Disable the Output Compare Fast Bit */
1831:cpu/STM32F103/stm32f10x_tim.c ****   tmpccmr1 |= (u16)(TIM_OCFast << 8);
1832:cpu/STM32F103/stm32f10x_tim.c **** 
1833:cpu/STM32F103/stm32f10x_tim.c ****   /* Write to TIMx CCMR1 */
1834:cpu/STM32F103/stm32f10x_tim.c ****   TIMx->CCMR1 = tmpccmr1;
1835:cpu/STM32F103/stm32f10x_tim.c **** }
1836:cpu/STM32F103/stm32f10x_tim.c **** 
1837:cpu/STM32F103/stm32f10x_tim.c **** /*******************************************************************************
1838:cpu/STM32F103/stm32f10x_tim.c **** * Function Name  : TIM_OC3FastConfig
1839:cpu/STM32F103/stm32f10x_tim.c **** * Description    : Configures the TIMx Output Compare 3 Fast feature.
1840:cpu/STM32F103/stm32f10x_tim.c **** * Input          : - TIMx: where x can be  1, 2, 3, 4, 5 or 8 to select the TIM 
1841:cpu/STM32F103/stm32f10x_tim.c **** *                    peripheral.
1842:cpu/STM32F103/stm32f10x_tim.c **** *                  - TIM_OCFast: new state of the Output Compare Fast Enable Bit.
1843:cpu/STM32F103/stm32f10x_tim.c **** *                    This parameter can be one of the following values:
1844:cpu/STM32F103/stm32f10x_tim.c **** *                       - TIM_OCFast_Enable: TIM output compare fast enable
1845:cpu/STM32F103/stm32f10x_tim.c **** *                       - TIM_OCFast_Disable: TIM output compare fast disable
1846:cpu/STM32F103/stm32f10x_tim.c **** * Output         : None
1847:cpu/STM32F103/stm32f10x_tim.c **** * Return         : None
1848:cpu/STM32F103/stm32f10x_tim.c **** *******************************************************************************/
1849:cpu/STM32F103/stm32f10x_tim.c **** void TIM_OC3FastConfig(TIM_TypeDef* TIMx, u16 TIM_OCFast)
1850:cpu/STM32F103/stm32f10x_tim.c **** {
1851:cpu/STM32F103/stm32f10x_tim.c ****   u16 tmpccmr2 = 0;
1852:cpu/STM32F103/stm32f10x_tim.c **** 
1853:cpu/STM32F103/stm32f10x_tim.c ****   /* Check the parameters */
1854:cpu/STM32F103/stm32f10x_tim.c ****   assert_param(IS_TIM_123458_PERIPH(TIMx));
1855:cpu/STM32F103/stm32f10x_tim.c ****   assert_param(IS_TIM_OCFAST_STATE(TIM_OCFast));
1856:cpu/STM32F103/stm32f10x_tim.c **** 
1857:cpu/STM32F103/stm32f10x_tim.c ****   /* Get the TIMx CCMR2 register value */
1858:cpu/STM32F103/stm32f10x_tim.c ****   tmpccmr2 = TIMx->CCMR2;
1859:cpu/STM32F103/stm32f10x_tim.c **** 
1860:cpu/STM32F103/stm32f10x_tim.c ****   /* Reset the OC3FE Bit */
1861:cpu/STM32F103/stm32f10x_tim.c ****   tmpccmr2 &= CCMR_OC13FE_Reset;
1862:cpu/STM32F103/stm32f10x_tim.c **** 
1863:cpu/STM32F103/stm32f10x_tim.c ****   /* Enable or Disable the Output Compare Fast Bit */
1864:cpu/STM32F103/stm32f10x_tim.c ****   tmpccmr2 |= TIM_OCFast;
1865:cpu/STM32F103/stm32f10x_tim.c **** 
1866:cpu/STM32F103/stm32f10x_tim.c ****   /* Write to TIMx CCMR2 */
1867:cpu/STM32F103/stm32f10x_tim.c ****   TIMx->CCMR2 = tmpccmr2;
1868:cpu/STM32F103/stm32f10x_tim.c **** }
1869:cpu/STM32F103/stm32f10x_tim.c **** 
1870:cpu/STM32F103/stm32f10x_tim.c **** /*******************************************************************************
1871:cpu/STM32F103/stm32f10x_tim.c **** * Function Name  : TIM_OC4FastConfig
1872:cpu/STM32F103/stm32f10x_tim.c **** * Description    : Configures the TIMx Output Compare 4 Fast feature.
1873:cpu/STM32F103/stm32f10x_tim.c **** * Input          : - TIMx: where x can be  1, 2, 3, 4, 5 or 8 to select the TIM 
1874:cpu/STM32F103/stm32f10x_tim.c **** *                    peripheral.
1875:cpu/STM32F103/stm32f10x_tim.c **** *                  - TIM_OCFast: new state of the Output Compare Fast Enable Bit.
1876:cpu/STM32F103/stm32f10x_tim.c **** *                    This parameter can be one of the following values:
1877:cpu/STM32F103/stm32f10x_tim.c **** *                       - TIM_OCFast_Enable: TIM output compare fast enable
1878:cpu/STM32F103/stm32f10x_tim.c **** *                       - TIM_OCFast_Disable: TIM output compare fast disable
1879:cpu/STM32F103/stm32f10x_tim.c **** * Output         : None
1880:cpu/STM32F103/stm32f10x_tim.c **** * Return         : None
1881:cpu/STM32F103/stm32f10x_tim.c **** *******************************************************************************/
1882:cpu/STM32F103/stm32f10x_tim.c **** void TIM_OC4FastConfig(TIM_TypeDef* TIMx, u16 TIM_OCFast)
1883:cpu/STM32F103/stm32f10x_tim.c **** {
1884:cpu/STM32F103/stm32f10x_tim.c ****   u16 tmpccmr2 = 0;
1885:cpu/STM32F103/stm32f10x_tim.c **** 
1886:cpu/STM32F103/stm32f10x_tim.c ****   /* Check the parameters */
1887:cpu/STM32F103/stm32f10x_tim.c ****   assert_param(IS_TIM_123458_PERIPH(TIMx));
1888:cpu/STM32F103/stm32f10x_tim.c ****   assert_param(IS_TIM_OCFAST_STATE(TIM_OCFast));
1889:cpu/STM32F103/stm32f10x_tim.c **** 
1890:cpu/STM32F103/stm32f10x_tim.c ****   /* Get the TIMx CCMR2 register value */
1891:cpu/STM32F103/stm32f10x_tim.c ****   tmpccmr2 = TIMx->CCMR2;
1892:cpu/STM32F103/stm32f10x_tim.c **** 
1893:cpu/STM32F103/stm32f10x_tim.c ****   /* Reset the OC4FE Bit */
1894:cpu/STM32F103/stm32f10x_tim.c ****   tmpccmr2 &= CCMR_OC24FE_Reset;
1895:cpu/STM32F103/stm32f10x_tim.c **** 
1896:cpu/STM32F103/stm32f10x_tim.c ****   /* Enable or Disable the Output Compare Fast Bit */
1897:cpu/STM32F103/stm32f10x_tim.c ****   tmpccmr2 |= (u16)(TIM_OCFast << 8);
1898:cpu/STM32F103/stm32f10x_tim.c **** 
1899:cpu/STM32F103/stm32f10x_tim.c ****   /* Write to TIMx CCMR2 */
1900:cpu/STM32F103/stm32f10x_tim.c ****   TIMx->CCMR2 = tmpccmr2;
1901:cpu/STM32F103/stm32f10x_tim.c **** }
1902:cpu/STM32F103/stm32f10x_tim.c **** 
1903:cpu/STM32F103/stm32f10x_tim.c **** /*******************************************************************************
1904:cpu/STM32F103/stm32f10x_tim.c **** * Function Name  : TIM_ClearOC1Ref
1905:cpu/STM32F103/stm32f10x_tim.c **** * Description    : Clears or safeguards the OCREF1 signal on an external event
1906:cpu/STM32F103/stm32f10x_tim.c **** * Input          : - TIMx: where x can be  1, 2, 3, 4, 5 or 8 to select the TIM 
1907:cpu/STM32F103/stm32f10x_tim.c **** *                    peripheral.
1908:cpu/STM32F103/stm32f10x_tim.c **** *                  - TIM_OCClear: new state of the Output Compare Clear Enable Bit.
1909:cpu/STM32F103/stm32f10x_tim.c **** *                    This parameter can be one of the following values:
1910:cpu/STM32F103/stm32f10x_tim.c **** *                       - TIM_OCClear_Enable: TIM Output clear enable
1911:cpu/STM32F103/stm32f10x_tim.c **** *                       - TIM_OCClear_Disable: TIM Output clear disable
1912:cpu/STM32F103/stm32f10x_tim.c **** * Output         : None
1913:cpu/STM32F103/stm32f10x_tim.c **** * Return         : None
1914:cpu/STM32F103/stm32f10x_tim.c **** *******************************************************************************/
1915:cpu/STM32F103/stm32f10x_tim.c **** void TIM_ClearOC1Ref(TIM_TypeDef* TIMx, u16 TIM_OCClear)
1916:cpu/STM32F103/stm32f10x_tim.c **** {
1917:cpu/STM32F103/stm32f10x_tim.c ****   u16 tmpccmr1 = 0;
1918:cpu/STM32F103/stm32f10x_tim.c **** 
1919:cpu/STM32F103/stm32f10x_tim.c ****   /* Check the parameters */
1920:cpu/STM32F103/stm32f10x_tim.c ****   assert_param(IS_TIM_123458_PERIPH(TIMx));
1921:cpu/STM32F103/stm32f10x_tim.c ****   assert_param(IS_TIM_OCCLEAR_STATE(TIM_OCClear));
1922:cpu/STM32F103/stm32f10x_tim.c **** 
1923:cpu/STM32F103/stm32f10x_tim.c ****   tmpccmr1 = TIMx->CCMR1;
1924:cpu/STM32F103/stm32f10x_tim.c **** 
1925:cpu/STM32F103/stm32f10x_tim.c ****   /* Reset the OC1CE Bit */
1926:cpu/STM32F103/stm32f10x_tim.c ****   tmpccmr1 &= CCMR_OC13CE_Reset;
1927:cpu/STM32F103/stm32f10x_tim.c **** 
1928:cpu/STM32F103/stm32f10x_tim.c ****   /* Enable or Disable the Output Compare Clear Bit */
1929:cpu/STM32F103/stm32f10x_tim.c ****   tmpccmr1 |= TIM_OCClear;
1930:cpu/STM32F103/stm32f10x_tim.c **** 
1931:cpu/STM32F103/stm32f10x_tim.c ****   /* Write to TIMx CCMR1 register */
1932:cpu/STM32F103/stm32f10x_tim.c ****   TIMx->CCMR1 = tmpccmr1;
1933:cpu/STM32F103/stm32f10x_tim.c **** }
1934:cpu/STM32F103/stm32f10x_tim.c **** 
1935:cpu/STM32F103/stm32f10x_tim.c **** /*******************************************************************************
1936:cpu/STM32F103/stm32f10x_tim.c **** * Function Name  : TIM_ClearOC2Ref
1937:cpu/STM32F103/stm32f10x_tim.c **** * Description    : Clears or safeguards the OCREF2 signal on an external event
1938:cpu/STM32F103/stm32f10x_tim.c **** * Input          : - TIMx: where x can be  1, 2, 3, 4, 5 or 8 to select the TIM 
1939:cpu/STM32F103/stm32f10x_tim.c **** *                    peripheral.
1940:cpu/STM32F103/stm32f10x_tim.c **** *                  - TIM_OCClear: new state of the Output Compare Clear Enable Bit.
1941:cpu/STM32F103/stm32f10x_tim.c **** *                    This parameter can be one of the following values:
1942:cpu/STM32F103/stm32f10x_tim.c **** *                       - TIM_OCClear_Enable: TIM Output clear enable
1943:cpu/STM32F103/stm32f10x_tim.c **** *                       - TIM_OCClear_Disable: TIM Output clear disable
1944:cpu/STM32F103/stm32f10x_tim.c **** * Output         : None
1945:cpu/STM32F103/stm32f10x_tim.c **** * Return         : None
1946:cpu/STM32F103/stm32f10x_tim.c **** *******************************************************************************/
1947:cpu/STM32F103/stm32f10x_tim.c **** void TIM_ClearOC2Ref(TIM_TypeDef* TIMx, u16 TIM_OCClear)
1948:cpu/STM32F103/stm32f10x_tim.c **** {
1949:cpu/STM32F103/stm32f10x_tim.c ****   u16 tmpccmr1 = 0;
1950:cpu/STM32F103/stm32f10x_tim.c **** 
1951:cpu/STM32F103/stm32f10x_tim.c ****   /* Check the parameters */
1952:cpu/STM32F103/stm32f10x_tim.c ****   assert_param(IS_TIM_123458_PERIPH(TIMx));
1953:cpu/STM32F103/stm32f10x_tim.c ****   assert_param(IS_TIM_OCCLEAR_STATE(TIM_OCClear));
1954:cpu/STM32F103/stm32f10x_tim.c **** 
1955:cpu/STM32F103/stm32f10x_tim.c ****   tmpccmr1 = TIMx->CCMR1;
1956:cpu/STM32F103/stm32f10x_tim.c **** 
1957:cpu/STM32F103/stm32f10x_tim.c ****   /* Reset the OC2CE Bit */
1958:cpu/STM32F103/stm32f10x_tim.c ****   tmpccmr1 &= CCMR_OC24CE_Reset;
1959:cpu/STM32F103/stm32f10x_tim.c **** 
1960:cpu/STM32F103/stm32f10x_tim.c ****   /* Enable or Disable the Output Compare Clear Bit */
1961:cpu/STM32F103/stm32f10x_tim.c ****   tmpccmr1 |= (u16)(TIM_OCClear << 8);
1962:cpu/STM32F103/stm32f10x_tim.c **** 
1963:cpu/STM32F103/stm32f10x_tim.c ****   /* Write to TIMx CCMR1 register */
1964:cpu/STM32F103/stm32f10x_tim.c ****   TIMx->CCMR1 = tmpccmr1;
1965:cpu/STM32F103/stm32f10x_tim.c **** }
1966:cpu/STM32F103/stm32f10x_tim.c **** 
1967:cpu/STM32F103/stm32f10x_tim.c **** /*******************************************************************************
1968:cpu/STM32F103/stm32f10x_tim.c **** * Function Name  : TIM_ClearOC3Ref
1969:cpu/STM32F103/stm32f10x_tim.c **** * Description    : Clears or safeguards the OCREF3 signal on an external event
1970:cpu/STM32F103/stm32f10x_tim.c **** * Input          : - TIMx: where x can be  1, 2, 3, 4, 5 or 8 to select the TIM 
1971:cpu/STM32F103/stm32f10x_tim.c **** *                    peripheral.
1972:cpu/STM32F103/stm32f10x_tim.c **** *                  - TIM_OCClear: new state of the Output Compare Clear Enable Bit.
1973:cpu/STM32F103/stm32f10x_tim.c **** *                    This parameter can be one of the following values:
1974:cpu/STM32F103/stm32f10x_tim.c **** *                       - TIM_OCClear_Enable: TIM Output clear enable
1975:cpu/STM32F103/stm32f10x_tim.c **** *                       - TIM_OCClear_Disable: TIM Output clear disable
1976:cpu/STM32F103/stm32f10x_tim.c **** * Output         : None
1977:cpu/STM32F103/stm32f10x_tim.c **** * Return         : None
1978:cpu/STM32F103/stm32f10x_tim.c **** *******************************************************************************/
1979:cpu/STM32F103/stm32f10x_tim.c **** void TIM_ClearOC3Ref(TIM_TypeDef* TIMx, u16 TIM_OCClear)
1980:cpu/STM32F103/stm32f10x_tim.c **** {
1981:cpu/STM32F103/stm32f10x_tim.c ****   u16 tmpccmr2 = 0;
1982:cpu/STM32F103/stm32f10x_tim.c **** 
1983:cpu/STM32F103/stm32f10x_tim.c ****   /* Check the parameters */
1984:cpu/STM32F103/stm32f10x_tim.c ****   assert_param(IS_TIM_123458_PERIPH(TIMx));
1985:cpu/STM32F103/stm32f10x_tim.c ****   assert_param(IS_TIM_OCCLEAR_STATE(TIM_OCClear));
1986:cpu/STM32F103/stm32f10x_tim.c **** 
1987:cpu/STM32F103/stm32f10x_tim.c ****   tmpccmr2 = TIMx->CCMR2;
1988:cpu/STM32F103/stm32f10x_tim.c **** 
1989:cpu/STM32F103/stm32f10x_tim.c ****   /* Reset the OC3CE Bit */
1990:cpu/STM32F103/stm32f10x_tim.c ****   tmpccmr2 &= CCMR_OC13CE_Reset;
1991:cpu/STM32F103/stm32f10x_tim.c **** 
1992:cpu/STM32F103/stm32f10x_tim.c ****   /* Enable or Disable the Output Compare Clear Bit */
1993:cpu/STM32F103/stm32f10x_tim.c ****   tmpccmr2 |= TIM_OCClear;
1994:cpu/STM32F103/stm32f10x_tim.c **** 
1995:cpu/STM32F103/stm32f10x_tim.c ****   /* Write to TIMx CCMR2 register */
1996:cpu/STM32F103/stm32f10x_tim.c ****   TIMx->CCMR2 = tmpccmr2;
1997:cpu/STM32F103/stm32f10x_tim.c **** }
1998:cpu/STM32F103/stm32f10x_tim.c **** 
1999:cpu/STM32F103/stm32f10x_tim.c **** /*******************************************************************************
2000:cpu/STM32F103/stm32f10x_tim.c **** * Function Name  : TIM_ClearOC4Ref
2001:cpu/STM32F103/stm32f10x_tim.c **** * Description    : Clears or safeguards the OCREF4 signal on an external event
2002:cpu/STM32F103/stm32f10x_tim.c **** * Input          : - TIMx: where x can be  1, 2, 3, 4, 5 or 8 to select the TIM 
2003:cpu/STM32F103/stm32f10x_tim.c **** *                    peripheral.
2004:cpu/STM32F103/stm32f10x_tim.c **** *                  - TIM_OCClear: new state of the Output Compare Clear Enable Bit.
2005:cpu/STM32F103/stm32f10x_tim.c **** *                    This parameter can be one of the following values:
2006:cpu/STM32F103/stm32f10x_tim.c **** *                       - TIM_OCClear_Enable: TIM Output clear enable
2007:cpu/STM32F103/stm32f10x_tim.c **** *                       - TIM_OCClear_Disable: TIM Output clear disable
2008:cpu/STM32F103/stm32f10x_tim.c **** * Output         : None
2009:cpu/STM32F103/stm32f10x_tim.c **** * Return         : None
2010:cpu/STM32F103/stm32f10x_tim.c **** *******************************************************************************/
2011:cpu/STM32F103/stm32f10x_tim.c **** void TIM_ClearOC4Ref(TIM_TypeDef* TIMx, u16 TIM_OCClear)
2012:cpu/STM32F103/stm32f10x_tim.c **** {
2013:cpu/STM32F103/stm32f10x_tim.c ****   u16 tmpccmr2 = 0;
2014:cpu/STM32F103/stm32f10x_tim.c **** 
2015:cpu/STM32F103/stm32f10x_tim.c ****   /* Check the parameters */
2016:cpu/STM32F103/stm32f10x_tim.c ****   assert_param(IS_TIM_123458_PERIPH(TIMx));
2017:cpu/STM32F103/stm32f10x_tim.c ****   assert_param(IS_TIM_OCCLEAR_STATE(TIM_OCClear));
2018:cpu/STM32F103/stm32f10x_tim.c **** 
2019:cpu/STM32F103/stm32f10x_tim.c ****   tmpccmr2 = TIMx->CCMR2;
2020:cpu/STM32F103/stm32f10x_tim.c **** 
2021:cpu/STM32F103/stm32f10x_tim.c ****   /* Reset the OC4CE Bit */
2022:cpu/STM32F103/stm32f10x_tim.c ****   tmpccmr2 &= CCMR_OC24CE_Reset;
2023:cpu/STM32F103/stm32f10x_tim.c **** 
2024:cpu/STM32F103/stm32f10x_tim.c ****   /* Enable or Disable the Output Compare Clear Bit */
2025:cpu/STM32F103/stm32f10x_tim.c ****   tmpccmr2 |= (u16)(TIM_OCClear << 8);
2026:cpu/STM32F103/stm32f10x_tim.c **** 
2027:cpu/STM32F103/stm32f10x_tim.c ****   /* Write to TIMx CCMR2 register */
2028:cpu/STM32F103/stm32f10x_tim.c ****   TIMx->CCMR2 = tmpccmr2;
2029:cpu/STM32F103/stm32f10x_tim.c **** }
2030:cpu/STM32F103/stm32f10x_tim.c **** 
2031:cpu/STM32F103/stm32f10x_tim.c **** /*******************************************************************************
2032:cpu/STM32F103/stm32f10x_tim.c **** * Function Name  : TIM_OC1PolarityConfig
2033:cpu/STM32F103/stm32f10x_tim.c **** * Description    : Configures the TIMx channel 1 polarity.
2034:cpu/STM32F103/stm32f10x_tim.c **** * Input          : - TIMx: where x can be 1, 2, 3, 4, 5 or 8 to select the TIM 
2035:cpu/STM32F103/stm32f10x_tim.c **** *                    peripheral.
2036:cpu/STM32F103/stm32f10x_tim.c **** *                  - TIM_OCPolarity: specifies the OC1 Polarity
2037:cpu/STM32F103/stm32f10x_tim.c **** *                    This parmeter can be one of the following values:
2038:cpu/STM32F103/stm32f10x_tim.c **** *                       - TIM_OCPolarity_High: Output Compare active high
2039:cpu/STM32F103/stm32f10x_tim.c **** *                       - TIM_OCPolarity_Low: Output Compare active low
2040:cpu/STM32F103/stm32f10x_tim.c **** * Output         : None
2041:cpu/STM32F103/stm32f10x_tim.c **** * Return         : None
2042:cpu/STM32F103/stm32f10x_tim.c **** *******************************************************************************/
2043:cpu/STM32F103/stm32f10x_tim.c **** void TIM_OC1PolarityConfig(TIM_TypeDef* TIMx, u16 TIM_OCPolarity)
2044:cpu/STM32F103/stm32f10x_tim.c **** {
2045:cpu/STM32F103/stm32f10x_tim.c ****   u16 tmpccer = 0;
2046:cpu/STM32F103/stm32f10x_tim.c **** 
2047:cpu/STM32F103/stm32f10x_tim.c ****   /* Check the parameters */
2048:cpu/STM32F103/stm32f10x_tim.c ****   assert_param(IS_TIM_123458_PERIPH(TIMx));
2049:cpu/STM32F103/stm32f10x_tim.c ****   assert_param(IS_TIM_OC_POLARITY(TIM_OCPolarity));
2050:cpu/STM32F103/stm32f10x_tim.c **** 
2051:cpu/STM32F103/stm32f10x_tim.c ****   tmpccer = TIMx->CCER;
2052:cpu/STM32F103/stm32f10x_tim.c **** 
2053:cpu/STM32F103/stm32f10x_tim.c ****   /* Set or Reset the CC1P Bit */
2054:cpu/STM32F103/stm32f10x_tim.c ****   tmpccer &= CCER_CC1P_Reset;
2055:cpu/STM32F103/stm32f10x_tim.c ****   tmpccer |= TIM_OCPolarity;
2056:cpu/STM32F103/stm32f10x_tim.c **** 
2057:cpu/STM32F103/stm32f10x_tim.c ****   /* Write to TIMx CCER register */
2058:cpu/STM32F103/stm32f10x_tim.c ****   TIMx->CCER = tmpccer;
2059:cpu/STM32F103/stm32f10x_tim.c **** }
2060:cpu/STM32F103/stm32f10x_tim.c **** 
2061:cpu/STM32F103/stm32f10x_tim.c **** /*******************************************************************************
2062:cpu/STM32F103/stm32f10x_tim.c **** * Function Name  : TIM_OC1NPolarityConfig
2063:cpu/STM32F103/stm32f10x_tim.c **** * Description    : Configures the TIMx Channel 1N polarity.
2064:cpu/STM32F103/stm32f10x_tim.c **** * Input          : - TIMx: where x can be 1 or 8 to select the TIM peripheral.
2065:cpu/STM32F103/stm32f10x_tim.c **** *                  - TIM_OCNPolarity: specifies the OC1N Polarity
2066:cpu/STM32F103/stm32f10x_tim.c **** *                    This parmeter can be one of the following values:
2067:cpu/STM32F103/stm32f10x_tim.c **** *                       - TIM_OCNPolarity_High: Output Compare active high
2068:cpu/STM32F103/stm32f10x_tim.c **** *                       - TIM_OCNPolarity_Low: Output Compare active low
2069:cpu/STM32F103/stm32f10x_tim.c **** * Output         : None
2070:cpu/STM32F103/stm32f10x_tim.c **** * Return         : None
2071:cpu/STM32F103/stm32f10x_tim.c **** *******************************************************************************/
2072:cpu/STM32F103/stm32f10x_tim.c **** void TIM_OC1NPolarityConfig(TIM_TypeDef* TIMx, u16 TIM_OCNPolarity)
2073:cpu/STM32F103/stm32f10x_tim.c **** {
2074:cpu/STM32F103/stm32f10x_tim.c ****   u16 tmpccer = 0;
2075:cpu/STM32F103/stm32f10x_tim.c **** 
2076:cpu/STM32F103/stm32f10x_tim.c ****   /* Check the parameters */
2077:cpu/STM32F103/stm32f10x_tim.c ****   assert_param(IS_TIM_18_PERIPH(TIMx));
2078:cpu/STM32F103/stm32f10x_tim.c ****   assert_param(IS_TIM_OCN_POLARITY(TIM_OCNPolarity));
2079:cpu/STM32F103/stm32f10x_tim.c ****    
2080:cpu/STM32F103/stm32f10x_tim.c ****   tmpccer = TIMx->CCER;
2081:cpu/STM32F103/stm32f10x_tim.c **** 
2082:cpu/STM32F103/stm32f10x_tim.c ****   /* Set or Reset the CC1NP Bit */
2083:cpu/STM32F103/stm32f10x_tim.c ****   tmpccer &= CCER_CC1NP_Reset;
2084:cpu/STM32F103/stm32f10x_tim.c ****   tmpccer |= TIM_OCNPolarity;
2085:cpu/STM32F103/stm32f10x_tim.c **** 
2086:cpu/STM32F103/stm32f10x_tim.c ****   /* Write to TIMx CCER register */
2087:cpu/STM32F103/stm32f10x_tim.c ****   TIMx->CCER = tmpccer;
2088:cpu/STM32F103/stm32f10x_tim.c **** }
2089:cpu/STM32F103/stm32f10x_tim.c **** 
2090:cpu/STM32F103/stm32f10x_tim.c **** /*******************************************************************************
2091:cpu/STM32F103/stm32f10x_tim.c **** * Function Name  : TIM_OC2PolarityConfig
2092:cpu/STM32F103/stm32f10x_tim.c **** * Description    : Configures the TIMx channel 2 polarity.
2093:cpu/STM32F103/stm32f10x_tim.c **** * Input          : - TIMx: where x can be 1, 2, 3, 4, 5 or 8 to select the TIM 
2094:cpu/STM32F103/stm32f10x_tim.c **** *                    peripheral.
2095:cpu/STM32F103/stm32f10x_tim.c **** *                  - TIM_OCPolarity: specifies the OC2 Polarity
2096:cpu/STM32F103/stm32f10x_tim.c **** *                    This parmeter can be one of the following values:
2097:cpu/STM32F103/stm32f10x_tim.c **** *                       - TIM_OCPolarity_High: Output Compare active high
2098:cpu/STM32F103/stm32f10x_tim.c **** *                       - TIM_OCPolarity_Low: Output Compare active low
2099:cpu/STM32F103/stm32f10x_tim.c **** * Output         : None
2100:cpu/STM32F103/stm32f10x_tim.c **** * Return         : None
2101:cpu/STM32F103/stm32f10x_tim.c **** *******************************************************************************/
2102:cpu/STM32F103/stm32f10x_tim.c **** void TIM_OC2PolarityConfig(TIM_TypeDef* TIMx, u16 TIM_OCPolarity)
2103:cpu/STM32F103/stm32f10x_tim.c **** {
2104:cpu/STM32F103/stm32f10x_tim.c ****   u16 tmpccer = 0;
2105:cpu/STM32F103/stm32f10x_tim.c **** 
2106:cpu/STM32F103/stm32f10x_tim.c ****   /* Check the parameters */
2107:cpu/STM32F103/stm32f10x_tim.c ****   assert_param(IS_TIM_123458_PERIPH(TIMx));
2108:cpu/STM32F103/stm32f10x_tim.c ****   assert_param(IS_TIM_OC_POLARITY(TIM_OCPolarity));
2109:cpu/STM32F103/stm32f10x_tim.c **** 
2110:cpu/STM32F103/stm32f10x_tim.c ****   tmpccer = TIMx->CCER;
2111:cpu/STM32F103/stm32f10x_tim.c **** 
2112:cpu/STM32F103/stm32f10x_tim.c ****   /* Set or Reset the CC2P Bit */
2113:cpu/STM32F103/stm32f10x_tim.c ****   tmpccer &= CCER_CC2P_Reset;
2114:cpu/STM32F103/stm32f10x_tim.c ****   tmpccer |= (u16)(TIM_OCPolarity << 4);
2115:cpu/STM32F103/stm32f10x_tim.c **** 
2116:cpu/STM32F103/stm32f10x_tim.c ****   /* Write to TIMx CCER register */
2117:cpu/STM32F103/stm32f10x_tim.c ****   TIMx->CCER = tmpccer;
2118:cpu/STM32F103/stm32f10x_tim.c **** }
2119:cpu/STM32F103/stm32f10x_tim.c **** 
2120:cpu/STM32F103/stm32f10x_tim.c **** /*******************************************************************************
2121:cpu/STM32F103/stm32f10x_tim.c **** * Function Name  : TIM_OC2NPolarityConfig
2122:cpu/STM32F103/stm32f10x_tim.c **** * Description    : Configures the TIMx Channel 2N polarity.
2123:cpu/STM32F103/stm32f10x_tim.c **** * Input          : - TIMx: where x can be 1 or 8 to select the TIM peripheral.
2124:cpu/STM32F103/stm32f10x_tim.c **** *                  - TIM_OCNPolarity: specifies the OC2N Polarity
2125:cpu/STM32F103/stm32f10x_tim.c **** *                    This parmeter can be one of the following values:
2126:cpu/STM32F103/stm32f10x_tim.c **** *                       - TIM_OCNPolarity_High: Output Compare active high
2127:cpu/STM32F103/stm32f10x_tim.c **** *                       - TIM_OCNPolarity_Low: Output Compare active low
2128:cpu/STM32F103/stm32f10x_tim.c **** * Output         : None
2129:cpu/STM32F103/stm32f10x_tim.c **** * Return         : None
2130:cpu/STM32F103/stm32f10x_tim.c **** *******************************************************************************/
2131:cpu/STM32F103/stm32f10x_tim.c **** void TIM_OC2NPolarityConfig(TIM_TypeDef* TIMx, u16 TIM_OCNPolarity)
2132:cpu/STM32F103/stm32f10x_tim.c **** {
2133:cpu/STM32F103/stm32f10x_tim.c ****   u16 tmpccer = 0;
2134:cpu/STM32F103/stm32f10x_tim.c **** 
2135:cpu/STM32F103/stm32f10x_tim.c ****   /* Check the parameters */
2136:cpu/STM32F103/stm32f10x_tim.c ****   assert_param(IS_TIM_18_PERIPH(TIMx));
2137:cpu/STM32F103/stm32f10x_tim.c ****   assert_param(IS_TIM_OCN_POLARITY(TIM_OCNPolarity));
2138:cpu/STM32F103/stm32f10x_tim.c ****   
2139:cpu/STM32F103/stm32f10x_tim.c ****   tmpccer = TIMx->CCER;
2140:cpu/STM32F103/stm32f10x_tim.c **** 
2141:cpu/STM32F103/stm32f10x_tim.c ****   /* Set or Reset the CC2NP Bit */
2142:cpu/STM32F103/stm32f10x_tim.c ****   tmpccer &= CCER_CC2NP_Reset;
2143:cpu/STM32F103/stm32f10x_tim.c ****   tmpccer |= (u16)(TIM_OCNPolarity << 4);
2144:cpu/STM32F103/stm32f10x_tim.c **** 
2145:cpu/STM32F103/stm32f10x_tim.c ****   /* Write to TIMx CCER register */
2146:cpu/STM32F103/stm32f10x_tim.c ****   TIMx->CCER = tmpccer;
2147:cpu/STM32F103/stm32f10x_tim.c **** }
2148:cpu/STM32F103/stm32f10x_tim.c **** 
2149:cpu/STM32F103/stm32f10x_tim.c **** /*******************************************************************************
2150:cpu/STM32F103/stm32f10x_tim.c **** * Function Name  : TIM_OC3PolarityConfig
2151:cpu/STM32F103/stm32f10x_tim.c **** * Description    : Configures the TIMx channel 3 polarity.
2152:cpu/STM32F103/stm32f10x_tim.c **** * Input          : - TIMx: where x can be 1, 2, 3, 4, 5 or 8 to select the TIM 
2153:cpu/STM32F103/stm32f10x_tim.c **** *                    peripheral.
2154:cpu/STM32F103/stm32f10x_tim.c **** *                  - TIM_OCPolarity: specifies the OC3 Polarity
2155:cpu/STM32F103/stm32f10x_tim.c **** *                    This parmeter can be one of the following values:
2156:cpu/STM32F103/stm32f10x_tim.c **** *                       - TIM_OCPolarity_High: Output Compare active high
2157:cpu/STM32F103/stm32f10x_tim.c **** *                       - TIM_OCPolarity_Low: Output Compare active low
2158:cpu/STM32F103/stm32f10x_tim.c **** * Output         : None
2159:cpu/STM32F103/stm32f10x_tim.c **** * Return         : None
2160:cpu/STM32F103/stm32f10x_tim.c **** *******************************************************************************/
2161:cpu/STM32F103/stm32f10x_tim.c **** void TIM_OC3PolarityConfig(TIM_TypeDef* TIMx, u16 TIM_OCPolarity)
2162:cpu/STM32F103/stm32f10x_tim.c **** {
2163:cpu/STM32F103/stm32f10x_tim.c ****   u16 tmpccer = 0;
2164:cpu/STM32F103/stm32f10x_tim.c **** 
2165:cpu/STM32F103/stm32f10x_tim.c ****   /* Check the parameters */
2166:cpu/STM32F103/stm32f10x_tim.c ****   assert_param(IS_TIM_123458_PERIPH(TIMx));
2167:cpu/STM32F103/stm32f10x_tim.c ****   assert_param(IS_TIM_OC_POLARITY(TIM_OCPolarity));
2168:cpu/STM32F103/stm32f10x_tim.c **** 
2169:cpu/STM32F103/stm32f10x_tim.c ****   tmpccer = TIMx->CCER;
2170:cpu/STM32F103/stm32f10x_tim.c **** 
2171:cpu/STM32F103/stm32f10x_tim.c ****   /* Set or Reset the CC3P Bit */
2172:cpu/STM32F103/stm32f10x_tim.c ****   tmpccer &= CCER_CC3P_Reset;
2173:cpu/STM32F103/stm32f10x_tim.c ****   tmpccer |= (u16)(TIM_OCPolarity << 8);
2174:cpu/STM32F103/stm32f10x_tim.c **** 
2175:cpu/STM32F103/stm32f10x_tim.c ****   /* Write to TIMx CCER register */
2176:cpu/STM32F103/stm32f10x_tim.c ****   TIMx->CCER = tmpccer;
2177:cpu/STM32F103/stm32f10x_tim.c **** }
2178:cpu/STM32F103/stm32f10x_tim.c **** 
2179:cpu/STM32F103/stm32f10x_tim.c **** /*******************************************************************************
2180:cpu/STM32F103/stm32f10x_tim.c **** * Function Name  : TIM_OC3NPolarityConfig
2181:cpu/STM32F103/stm32f10x_tim.c **** * Description    : Configures the TIMx Channel 3N polarity.
2182:cpu/STM32F103/stm32f10x_tim.c **** * Input          : - TIMx: where x can be 1 or 8 to select the TIM peripheral.
2183:cpu/STM32F103/stm32f10x_tim.c **** *                  - TIM_OCNPolarity: specifies the OC3N Polarity
2184:cpu/STM32F103/stm32f10x_tim.c **** *                    This parmeter can be one of the following values:
2185:cpu/STM32F103/stm32f10x_tim.c **** *                       - TIM_OCNPolarity_High: Output Compare active high
2186:cpu/STM32F103/stm32f10x_tim.c **** *                       - TIM_OCNPolarity_Low: Output Compare active low
2187:cpu/STM32F103/stm32f10x_tim.c **** * Output         : None
2188:cpu/STM32F103/stm32f10x_tim.c **** * Return         : None
2189:cpu/STM32F103/stm32f10x_tim.c **** *******************************************************************************/
2190:cpu/STM32F103/stm32f10x_tim.c **** void TIM_OC3NPolarityConfig(TIM_TypeDef* TIMx, u16 TIM_OCNPolarity)
2191:cpu/STM32F103/stm32f10x_tim.c **** {
2192:cpu/STM32F103/stm32f10x_tim.c ****   u16 tmpccer = 0;
2193:cpu/STM32F103/stm32f10x_tim.c ****  
2194:cpu/STM32F103/stm32f10x_tim.c ****   /* Check the parameters */
2195:cpu/STM32F103/stm32f10x_tim.c ****   assert_param(IS_TIM_18_PERIPH(TIMx));
2196:cpu/STM32F103/stm32f10x_tim.c ****   assert_param(IS_TIM_OCN_POLARITY(TIM_OCNPolarity));
2197:cpu/STM32F103/stm32f10x_tim.c ****     
2198:cpu/STM32F103/stm32f10x_tim.c ****   tmpccer = TIMx->CCER;
2199:cpu/STM32F103/stm32f10x_tim.c **** 
2200:cpu/STM32F103/stm32f10x_tim.c ****   /* Set or Reset the CC3NP Bit */
2201:cpu/STM32F103/stm32f10x_tim.c ****   tmpccer &= CCER_CC3NP_Reset;
2202:cpu/STM32F103/stm32f10x_tim.c ****   tmpccer |= (u16)(TIM_OCNPolarity << 8);
2203:cpu/STM32F103/stm32f10x_tim.c **** 
2204:cpu/STM32F103/stm32f10x_tim.c ****   /* Write to TIMx CCER register */
2205:cpu/STM32F103/stm32f10x_tim.c ****   TIMx->CCER = tmpccer;
2206:cpu/STM32F103/stm32f10x_tim.c **** }
2207:cpu/STM32F103/stm32f10x_tim.c **** 
2208:cpu/STM32F103/stm32f10x_tim.c **** /*******************************************************************************
2209:cpu/STM32F103/stm32f10x_tim.c **** * Function Name  : TIM_OC4PolarityConfig
2210:cpu/STM32F103/stm32f10x_tim.c **** * Description    : Configures the TIMx channel 4 polarity.
2211:cpu/STM32F103/stm32f10x_tim.c **** * Input          : - TIMx: where x can be 1, 2, 3, 4, 5 or 8 to select the TIM 
2212:cpu/STM32F103/stm32f10x_tim.c **** *                    peripheral.
2213:cpu/STM32F103/stm32f10x_tim.c **** *                  - TIM_OCPolarity: specifies the OC4 Polarity
2214:cpu/STM32F103/stm32f10x_tim.c **** *                    This parmeter can be one of the following values:
2215:cpu/STM32F103/stm32f10x_tim.c **** *                       - TIM_OCPolarity_High: Output Compare active high
2216:cpu/STM32F103/stm32f10x_tim.c **** *                       - TIM_OCPolarity_Low: Output Compare active low
2217:cpu/STM32F103/stm32f10x_tim.c **** * Output         : None
2218:cpu/STM32F103/stm32f10x_tim.c **** * Return         : None
2219:cpu/STM32F103/stm32f10x_tim.c **** *******************************************************************************/
2220:cpu/STM32F103/stm32f10x_tim.c **** void TIM_OC4PolarityConfig(TIM_TypeDef* TIMx, u16 TIM_OCPolarity)
2221:cpu/STM32F103/stm32f10x_tim.c **** {
2222:cpu/STM32F103/stm32f10x_tim.c ****   u16 tmpccer = 0;
2223:cpu/STM32F103/stm32f10x_tim.c **** 
2224:cpu/STM32F103/stm32f10x_tim.c ****   /* Check the parameters */
2225:cpu/STM32F103/stm32f10x_tim.c ****   assert_param(IS_TIM_123458_PERIPH(TIMx));
2226:cpu/STM32F103/stm32f10x_tim.c ****   assert_param(IS_TIM_OC_POLARITY(TIM_OCPolarity));
2227:cpu/STM32F103/stm32f10x_tim.c **** 
2228:cpu/STM32F103/stm32f10x_tim.c ****   tmpccer = TIMx->CCER;
2229:cpu/STM32F103/stm32f10x_tim.c **** 
2230:cpu/STM32F103/stm32f10x_tim.c ****   /* Set or Reset the CC4P Bit */
2231:cpu/STM32F103/stm32f10x_tim.c ****   tmpccer &= CCER_CC4P_Reset;
2232:cpu/STM32F103/stm32f10x_tim.c ****   tmpccer |= (u16)(TIM_OCPolarity << 12);
2233:cpu/STM32F103/stm32f10x_tim.c **** 
2234:cpu/STM32F103/stm32f10x_tim.c ****   /* Write to TIMx CCER register */
2235:cpu/STM32F103/stm32f10x_tim.c ****   TIMx->CCER = tmpccer;
2236:cpu/STM32F103/stm32f10x_tim.c **** }
2237:cpu/STM32F103/stm32f10x_tim.c **** 
2238:cpu/STM32F103/stm32f10x_tim.c **** /*******************************************************************************
2239:cpu/STM32F103/stm32f10x_tim.c **** * Function Name  : TIM_CCxCmd
2240:cpu/STM32F103/stm32f10x_tim.c **** * Description    : Enables or disables the TIM Capture Compare Channel x.
2241:cpu/STM32F103/stm32f10x_tim.c **** * Input          : - TIMx: where x can be 1, 2, 3, 4, 5 or 8 to select the TIM
2242:cpu/STM32F103/stm32f10x_tim.c **** *                    peripheral.
2243:cpu/STM32F103/stm32f10x_tim.c **** *                  - TIM_Channel: specifies the TIM Channel
2244:cpu/STM32F103/stm32f10x_tim.c **** *                    This parmeter can be one of the following values:
2245:cpu/STM32F103/stm32f10x_tim.c **** *                       - TIM_Channel_1: TIM Channel 1
2246:cpu/STM32F103/stm32f10x_tim.c **** *                       - TIM_Channel_2: TIM Channel 2
2247:cpu/STM32F103/stm32f10x_tim.c **** *                       - TIM_Channel_3: TIM Channel 3
2248:cpu/STM32F103/stm32f10x_tim.c **** *                       - TIM_Channel_4: TIM Channel 4
2249:cpu/STM32F103/stm32f10x_tim.c **** *                 - TIM_CCx: specifies the TIM Channel CCxE bit new state.
2250:cpu/STM32F103/stm32f10x_tim.c **** *                   This parameter can be: TIM_CCx_Enable or TIM_CCx_Disable. 
2251:cpu/STM32F103/stm32f10x_tim.c **** * Output         : None
2252:cpu/STM32F103/stm32f10x_tim.c **** * Return         : None
2253:cpu/STM32F103/stm32f10x_tim.c **** *******************************************************************************/
2254:cpu/STM32F103/stm32f10x_tim.c **** void TIM_CCxCmd(TIM_TypeDef* TIMx, u16 TIM_Channel, u16 TIM_CCx)
2255:cpu/STM32F103/stm32f10x_tim.c **** {
2256:cpu/STM32F103/stm32f10x_tim.c ****   /* Check the parameters */
2257:cpu/STM32F103/stm32f10x_tim.c ****   assert_param(IS_TIM_123458_PERIPH(TIMx));
2258:cpu/STM32F103/stm32f10x_tim.c ****   assert_param(IS_TIM_CHANNEL(TIM_Channel));
2259:cpu/STM32F103/stm32f10x_tim.c ****   assert_param(IS_TIM_CCX(TIM_CCx));
2260:cpu/STM32F103/stm32f10x_tim.c **** 
2261:cpu/STM32F103/stm32f10x_tim.c ****   /* Reset the CCxE Bit */
2262:cpu/STM32F103/stm32f10x_tim.c ****   TIMx->CCER &= (u16)(~((u16)(CCER_CCE_Set << TIM_Channel)));
2263:cpu/STM32F103/stm32f10x_tim.c **** 
2264:cpu/STM32F103/stm32f10x_tim.c ****   /* Set or reset the CCxE Bit */ 
2265:cpu/STM32F103/stm32f10x_tim.c ****   TIMx->CCER |=  (u16)(TIM_CCx << TIM_Channel);
2266:cpu/STM32F103/stm32f10x_tim.c **** }
2267:cpu/STM32F103/stm32f10x_tim.c **** 
2268:cpu/STM32F103/stm32f10x_tim.c **** /*******************************************************************************
2269:cpu/STM32F103/stm32f10x_tim.c **** * Function Name  : TIM_CCxNCmd
2270:cpu/STM32F103/stm32f10x_tim.c **** * Description    : Enables or disables the TIM Capture Compare Channel xN.
2271:cpu/STM32F103/stm32f10x_tim.c **** * Input          :- TIMx: where x can be 1 or 8 to select the TIM peripheral.
2272:cpu/STM32F103/stm32f10x_tim.c **** *                 - TIM_Channel: specifies the TIM Channel
2273:cpu/STM32F103/stm32f10x_tim.c **** *                    This parmeter can be one of the following values:
2274:cpu/STM32F103/stm32f10x_tim.c **** *                       - TIM_Channel_1: TIM Channel 1
2275:cpu/STM32F103/stm32f10x_tim.c **** *                       - TIM_Channel_2: TIM Channel 2
2276:cpu/STM32F103/stm32f10x_tim.c **** *                       - TIM_Channel_3: TIM Channel 3
2277:cpu/STM32F103/stm32f10x_tim.c **** *                 - TIM_CCx: specifies the TIM Channel CCxNE bit new state.
2278:cpu/STM32F103/stm32f10x_tim.c **** *                   This parameter can be: TIM_CCxN_Enable or TIM_CCxN_Disable. 
2279:cpu/STM32F103/stm32f10x_tim.c **** * Output         : None
2280:cpu/STM32F103/stm32f10x_tim.c **** * Return         : None
2281:cpu/STM32F103/stm32f10x_tim.c **** *******************************************************************************/
2282:cpu/STM32F103/stm32f10x_tim.c **** void TIM_CCxNCmd(TIM_TypeDef* TIMx, u16 TIM_Channel, u16 TIM_CCxN)
2283:cpu/STM32F103/stm32f10x_tim.c **** {
2284:cpu/STM32F103/stm32f10x_tim.c ****   /* Check the parameters */
2285:cpu/STM32F103/stm32f10x_tim.c ****   assert_param(IS_TIM_18_PERIPH(TIMx));
2286:cpu/STM32F103/stm32f10x_tim.c ****   assert_param(IS_TIM_COMPLEMENTARY_CHANNEL(TIM_Channel));
2287:cpu/STM32F103/stm32f10x_tim.c ****   assert_param(IS_TIM_CCXN(TIM_CCxN));
2288:cpu/STM32F103/stm32f10x_tim.c **** 
2289:cpu/STM32F103/stm32f10x_tim.c ****   /* Reset the CCxNE Bit */
2290:cpu/STM32F103/stm32f10x_tim.c ****   TIMx->CCER &= (u16)(~((u16)(CCER_CCNE_Set << TIM_Channel)));
2291:cpu/STM32F103/stm32f10x_tim.c **** 
2292:cpu/STM32F103/stm32f10x_tim.c ****   /* Set or reset the CCxNE Bit */ 
2293:cpu/STM32F103/stm32f10x_tim.c ****   TIMx->CCER |=  (u16)(TIM_CCxN << TIM_Channel);
2294:cpu/STM32F103/stm32f10x_tim.c **** }
2295:cpu/STM32F103/stm32f10x_tim.c **** 
2296:cpu/STM32F103/stm32f10x_tim.c **** /*******************************************************************************
2297:cpu/STM32F103/stm32f10x_tim.c **** * Function Name  : TIM_SelectOCxM
2298:cpu/STM32F103/stm32f10x_tim.c **** * Description    : Selects the TIM Ouput Compare Mode.
2299:cpu/STM32F103/stm32f10x_tim.c **** *                  This function disables the selected channel before changing 
2300:cpu/STM32F103/stm32f10x_tim.c **** *                  the Ouput Compare Mode. User has to enable this channel using
2301:cpu/STM32F103/stm32f10x_tim.c **** *                  TIM_CCxCmd and TIM_CCxNCmd functions.
2302:cpu/STM32F103/stm32f10x_tim.c **** * Input          : - TIMx: where x can be 1, 2, 3, 4, 5 or 8 to select the TIM
2303:cpu/STM32F103/stm32f10x_tim.c **** *                    peripheral.
2304:cpu/STM32F103/stm32f10x_tim.c **** *                  - TIM_Channel: specifies the TIM Channel
2305:cpu/STM32F103/stm32f10x_tim.c **** *                    This parmeter can be one of the following values:
2306:cpu/STM32F103/stm32f10x_tim.c **** *                       - TIM_Channel_1: TIM Channel 1
2307:cpu/STM32F103/stm32f10x_tim.c **** *                       - TIM_Channel_2: TIM Channel 2
2308:cpu/STM32F103/stm32f10x_tim.c **** *                       - TIM_Channel_3: TIM Channel 3
2309:cpu/STM32F103/stm32f10x_tim.c **** *                       - TIM_Channel_4: TIM Channel 4
2310:cpu/STM32F103/stm32f10x_tim.c **** *                  - TIM_OCMode: specifies the TIM Output Compare Mode.
2311:cpu/STM32F103/stm32f10x_tim.c **** *                    This paramter can be one of the following values:
2312:cpu/STM32F103/stm32f10x_tim.c **** *                       - TIM_OCMode_Timing
2313:cpu/STM32F103/stm32f10x_tim.c **** *                       - TIM_OCMode_Active
2314:cpu/STM32F103/stm32f10x_tim.c **** *                       - TIM_OCMode_Toggle
2315:cpu/STM32F103/stm32f10x_tim.c **** *                       - TIM_OCMode_PWM1
2316:cpu/STM32F103/stm32f10x_tim.c **** *                       - TIM_OCMode_PWM2
2317:cpu/STM32F103/stm32f10x_tim.c **** *                       - TIM_ForcedAction_Active
2318:cpu/STM32F103/stm32f10x_tim.c **** *                       - TIM_ForcedAction_InActive
2319:cpu/STM32F103/stm32f10x_tim.c **** * Output         : None
2320:cpu/STM32F103/stm32f10x_tim.c **** * Return         : None
2321:cpu/STM32F103/stm32f10x_tim.c **** *******************************************************************************/
2322:cpu/STM32F103/stm32f10x_tim.c **** void TIM_SelectOCxM(TIM_TypeDef* TIMx, u16 TIM_Channel, u16 TIM_OCMode)
2323:cpu/STM32F103/stm32f10x_tim.c **** {
2324:cpu/STM32F103/stm32f10x_tim.c ****   /* Check the parameters */
2325:cpu/STM32F103/stm32f10x_tim.c ****   assert_param(IS_TIM_123458_PERIPH(TIMx));
2326:cpu/STM32F103/stm32f10x_tim.c ****   assert_param(IS_TIM_CHANNEL(TIM_Channel));
2327:cpu/STM32F103/stm32f10x_tim.c ****   assert_param(IS_TIM_OCM(TIM_OCMode));
2328:cpu/STM32F103/stm32f10x_tim.c ****   
2329:cpu/STM32F103/stm32f10x_tim.c ****   /* Disable the Channel: Reset the CCxE Bit */
2330:cpu/STM32F103/stm32f10x_tim.c ****   TIMx->CCER &= (u16)(~((u16)(CCER_CCE_Set << TIM_Channel)));
2331:cpu/STM32F103/stm32f10x_tim.c **** 
2332:cpu/STM32F103/stm32f10x_tim.c ****   if((TIM_Channel == TIM_Channel_1) ||(TIM_Channel == TIM_Channel_3))
2333:cpu/STM32F103/stm32f10x_tim.c ****   {
2334:cpu/STM32F103/stm32f10x_tim.c ****     /* Reset the OCxM bits in the CCMRx register */
2335:cpu/STM32F103/stm32f10x_tim.c ****     *((vu32 *)((*(u32*)&TIMx) + CCMR_Offset + (TIM_Channel>>1))) &= CCMR_OC13M_Mask;
2336:cpu/STM32F103/stm32f10x_tim.c ****    
2337:cpu/STM32F103/stm32f10x_tim.c ****     /* Configure the OCxM bits in the CCMRx register */
2338:cpu/STM32F103/stm32f10x_tim.c ****     *((vu32 *)((*(u32*)&TIMx) + CCMR_Offset + (TIM_Channel>>1))) |= TIM_OCMode;
2339:cpu/STM32F103/stm32f10x_tim.c **** 
2340:cpu/STM32F103/stm32f10x_tim.c ****   }
2341:cpu/STM32F103/stm32f10x_tim.c ****   else
2342:cpu/STM32F103/stm32f10x_tim.c ****   {
2343:cpu/STM32F103/stm32f10x_tim.c ****     /* Reset the OCxM bits in the CCMRx register */
2344:cpu/STM32F103/stm32f10x_tim.c ****     *((vu32 *)((*(u32*)&TIMx) + CCMR_Offset + ((u16)(TIM_Channel - 4)>> 1))) &= CCMR_OC24M_Mask;
2345:cpu/STM32F103/stm32f10x_tim.c ****     
2346:cpu/STM32F103/stm32f10x_tim.c ****     /* Configure the OCxM bits in the CCMRx register */
2347:cpu/STM32F103/stm32f10x_tim.c ****     *((vu32 *)((*(u32*)&TIMx) + CCMR_Offset + ((u16)(TIM_Channel - 4)>> 1))) |= (u16)(TIM_OCMode <<
2348:cpu/STM32F103/stm32f10x_tim.c ****   }
2349:cpu/STM32F103/stm32f10x_tim.c **** }
2350:cpu/STM32F103/stm32f10x_tim.c **** 
2351:cpu/STM32F103/stm32f10x_tim.c **** /*******************************************************************************
2352:cpu/STM32F103/stm32f10x_tim.c **** * Function Name  : TIM_UpdateDisableConfig
2353:cpu/STM32F103/stm32f10x_tim.c **** * Description    : Enables or Disables the TIMx Update event.
2354:cpu/STM32F103/stm32f10x_tim.c **** * Input          : - TIMx: where x can be 1 to 8 to select the TIM peripheral.
2355:cpu/STM32F103/stm32f10x_tim.c **** *                  - NewState: new state of the TIMx UDIS bit
2356:cpu/STM32F103/stm32f10x_tim.c **** *                    This parameter can be: ENABLE or DISABLE.
2357:cpu/STM32F103/stm32f10x_tim.c **** * Output         : None
2358:cpu/STM32F103/stm32f10x_tim.c **** * Return         : None
2359:cpu/STM32F103/stm32f10x_tim.c **** *******************************************************************************/
2360:cpu/STM32F103/stm32f10x_tim.c **** void TIM_UpdateDisableConfig(TIM_TypeDef* TIMx, FunctionalState NewState)
2361:cpu/STM32F103/stm32f10x_tim.c **** {
2362:cpu/STM32F103/stm32f10x_tim.c ****   /* Check the parameters */
2363:cpu/STM32F103/stm32f10x_tim.c ****   assert_param(IS_TIM_ALL_PERIPH(TIMx));
2364:cpu/STM32F103/stm32f10x_tim.c ****   assert_param(IS_FUNCTIONAL_STATE(NewState));
2365:cpu/STM32F103/stm32f10x_tim.c **** 
2366:cpu/STM32F103/stm32f10x_tim.c ****   if (NewState != DISABLE)
2367:cpu/STM32F103/stm32f10x_tim.c ****   {
2368:cpu/STM32F103/stm32f10x_tim.c ****     /* Set the Update Disable Bit */
2369:cpu/STM32F103/stm32f10x_tim.c ****     TIMx->CR1 |= CR1_UDIS_Set;
2370:cpu/STM32F103/stm32f10x_tim.c ****   }
2371:cpu/STM32F103/stm32f10x_tim.c ****   else
2372:cpu/STM32F103/stm32f10x_tim.c ****   {
2373:cpu/STM32F103/stm32f10x_tim.c ****     /* Reset the Update Disable Bit */
2374:cpu/STM32F103/stm32f10x_tim.c ****     TIMx->CR1 &= CR1_UDIS_Reset;
2375:cpu/STM32F103/stm32f10x_tim.c ****   }
2376:cpu/STM32F103/stm32f10x_tim.c **** }
2377:cpu/STM32F103/stm32f10x_tim.c **** 
2378:cpu/STM32F103/stm32f10x_tim.c **** /*******************************************************************************
2379:cpu/STM32F103/stm32f10x_tim.c **** * Function Name  : TIM_UpdateRequestConfig
2380:cpu/STM32F103/stm32f10x_tim.c **** * Description    : Configures the TIMx Update Request Interrupt source.
2381:cpu/STM32F103/stm32f10x_tim.c **** * Input          : - TIMx: where x can be 1 to 8 to select the TIM peripheral.
2382:cpu/STM32F103/stm32f10x_tim.c **** *                  - TIM_UpdateSource: specifies the Update source.
2383:cpu/STM32F103/stm32f10x_tim.c **** *                    This parameter can be one of the following values:
2384:cpu/STM32F103/stm32f10x_tim.c **** *                       - TIM_UpdateSource_Regular
2385:cpu/STM32F103/stm32f10x_tim.c **** *                       - TIM_UpdateSource_Global
2386:cpu/STM32F103/stm32f10x_tim.c **** * Output         : None
2387:cpu/STM32F103/stm32f10x_tim.c **** * Return         : None
2388:cpu/STM32F103/stm32f10x_tim.c **** *******************************************************************************/
2389:cpu/STM32F103/stm32f10x_tim.c **** void TIM_UpdateRequestConfig(TIM_TypeDef* TIMx, u16 TIM_UpdateSource)
2390:cpu/STM32F103/stm32f10x_tim.c **** {
2391:cpu/STM32F103/stm32f10x_tim.c ****   /* Check the parameters */
2392:cpu/STM32F103/stm32f10x_tim.c ****   assert_param(IS_TIM_ALL_PERIPH(TIMx));
2393:cpu/STM32F103/stm32f10x_tim.c ****   assert_param(IS_TIM_UPDATE_SOURCE(TIM_UpdateSource));
2394:cpu/STM32F103/stm32f10x_tim.c **** 
2395:cpu/STM32F103/stm32f10x_tim.c ****   if (TIM_UpdateSource != TIM_UpdateSource_Global)
2396:cpu/STM32F103/stm32f10x_tim.c ****   {
2397:cpu/STM32F103/stm32f10x_tim.c ****     /* Set the URS Bit */
2398:cpu/STM32F103/stm32f10x_tim.c ****     TIMx->CR1 |= CR1_URS_Set;
2399:cpu/STM32F103/stm32f10x_tim.c ****   }
2400:cpu/STM32F103/stm32f10x_tim.c ****   else
2401:cpu/STM32F103/stm32f10x_tim.c ****   {
2402:cpu/STM32F103/stm32f10x_tim.c ****     /* Reset the URS Bit */
2403:cpu/STM32F103/stm32f10x_tim.c ****     TIMx->CR1 &= CR1_URS_Reset;
2404:cpu/STM32F103/stm32f10x_tim.c ****   }
2405:cpu/STM32F103/stm32f10x_tim.c **** }
2406:cpu/STM32F103/stm32f10x_tim.c **** 
2407:cpu/STM32F103/stm32f10x_tim.c **** /*******************************************************************************
2408:cpu/STM32F103/stm32f10x_tim.c **** * Function Name  : TIM_SelectHallSensor
2409:cpu/STM32F103/stm32f10x_tim.c **** * Description    : Enables or disables the TIMxs Hall sensor interface.
2410:cpu/STM32F103/stm32f10x_tim.c **** * Input          : - TIMx: where x can be 1, 2, 3, 4, 5 or 8 to select the TIM peripheral.
2411:cpu/STM32F103/stm32f10x_tim.c **** *                  - NewState: new state of the TIMx Hall sensor interface.
2412:cpu/STM32F103/stm32f10x_tim.c **** *                    This parameter can be: ENABLE or DISABLE.
2413:cpu/STM32F103/stm32f10x_tim.c **** * Output         : None
2414:cpu/STM32F103/stm32f10x_tim.c **** * Return         : None
2415:cpu/STM32F103/stm32f10x_tim.c **** *******************************************************************************/
2416:cpu/STM32F103/stm32f10x_tim.c **** void TIM_SelectHallSensor(TIM_TypeDef* TIMx, FunctionalState NewState)
2417:cpu/STM32F103/stm32f10x_tim.c **** {
2418:cpu/STM32F103/stm32f10x_tim.c ****   /* Check the parameters */
2419:cpu/STM32F103/stm32f10x_tim.c ****   assert_param(IS_TIM_123458_PERIPH(TIMx));
2420:cpu/STM32F103/stm32f10x_tim.c ****   assert_param(IS_FUNCTIONAL_STATE(NewState));
2421:cpu/STM32F103/stm32f10x_tim.c **** 
2422:cpu/STM32F103/stm32f10x_tim.c ****   if (NewState != DISABLE)
2423:cpu/STM32F103/stm32f10x_tim.c ****   {
2424:cpu/STM32F103/stm32f10x_tim.c ****     /* Set the TI1S Bit */
2425:cpu/STM32F103/stm32f10x_tim.c ****     TIMx->CR2 |= CR2_TI1S_Set;
2426:cpu/STM32F103/stm32f10x_tim.c ****   }
2427:cpu/STM32F103/stm32f10x_tim.c ****   else
2428:cpu/STM32F103/stm32f10x_tim.c ****   {
2429:cpu/STM32F103/stm32f10x_tim.c ****     /* Reset the TI1S Bit */
2430:cpu/STM32F103/stm32f10x_tim.c ****     TIMx->CR2 &= CR2_TI1S_Reset;
2431:cpu/STM32F103/stm32f10x_tim.c ****   }
2432:cpu/STM32F103/stm32f10x_tim.c **** }
2433:cpu/STM32F103/stm32f10x_tim.c **** 
2434:cpu/STM32F103/stm32f10x_tim.c **** /*******************************************************************************
2435:cpu/STM32F103/stm32f10x_tim.c **** * Function Name  : TIM_SelectOnePulseMode
2436:cpu/STM32F103/stm32f10x_tim.c **** * Description    : Selects the TIMxs One Pulse Mode.
2437:cpu/STM32F103/stm32f10x_tim.c **** * Input          : - TIMx: where x can be 1 to 8 to select the TIM peripheral.
2438:cpu/STM32F103/stm32f10x_tim.c **** *                  - TIM_OPMode: specifies the OPM Mode to be used.
2439:cpu/STM32F103/stm32f10x_tim.c **** *                    This parameter can be one of the following values:
2440:cpu/STM32F103/stm32f10x_tim.c **** *                       - TIM_OPMode_Single
2441:cpu/STM32F103/stm32f10x_tim.c **** *                       - TIM_OPMode_Repetitive
2442:cpu/STM32F103/stm32f10x_tim.c **** * Output         : None
2443:cpu/STM32F103/stm32f10x_tim.c **** * Return         : None
2444:cpu/STM32F103/stm32f10x_tim.c **** *******************************************************************************/
2445:cpu/STM32F103/stm32f10x_tim.c **** void TIM_SelectOnePulseMode(TIM_TypeDef* TIMx, u16 TIM_OPMode)
2446:cpu/STM32F103/stm32f10x_tim.c **** {
2447:cpu/STM32F103/stm32f10x_tim.c ****   /* Check the parameters */
2448:cpu/STM32F103/stm32f10x_tim.c ****   assert_param(IS_TIM_ALL_PERIPH(TIMx));
2449:cpu/STM32F103/stm32f10x_tim.c ****   assert_param(IS_TIM_OPM_MODE(TIM_OPMode));
2450:cpu/STM32F103/stm32f10x_tim.c **** 
2451:cpu/STM32F103/stm32f10x_tim.c ****   /* Reset the OPM Bit */
2452:cpu/STM32F103/stm32f10x_tim.c ****   TIMx->CR1 &= CR1_OPM_Reset;
2453:cpu/STM32F103/stm32f10x_tim.c **** 
2454:cpu/STM32F103/stm32f10x_tim.c ****   /* Configure the OPM Mode */
2455:cpu/STM32F103/stm32f10x_tim.c ****   TIMx->CR1 |= TIM_OPMode;
2456:cpu/STM32F103/stm32f10x_tim.c **** }
2457:cpu/STM32F103/stm32f10x_tim.c **** 
