   1              		.cpu cortex-m3
   2              		.arch armv7-m
   3              		.fpu softvfp
   4              		.eabi_attribute 20, 1
   5              		.eabi_attribute 21, 1
   6              		.eabi_attribute 23, 3
   7              		.eabi_attribute 24, 1
   8              		.eabi_attribute 25, 1
   9              		.eabi_attribute 26, 1
  10              		.eabi_attribute 30, 2
  11              		.eabi_attribute 34, 1
  12              		.eabi_attribute 18, 4
  13              		.file	"stm32f10x_exti.c"
  14              		.text
  15              	.Ltext0:
  16              		.cfi_sections	.debug_frame
  17              		.align	1
  18              		.p2align 2,,3
  19              		.global	EXTI_DeInit
  20              		.syntax unified
  21              		.thumb
  22              		.thumb_func
  24              	EXTI_DeInit:
  25              	.LFB0:
  26              		.file 1 "cpu/STM32F103/stm32f10x_exti.c"
   1:cpu/STM32F103/stm32f10x_exti.c **** /******************** (C) COPYRIGHT 2008 STMicroelectronics ********************
   2:cpu/STM32F103/stm32f10x_exti.c **** * File Name          : stm32f10x_exti.c
   3:cpu/STM32F103/stm32f10x_exti.c **** * Author             : MCD Application Team
   4:cpu/STM32F103/stm32f10x_exti.c **** * Version            : V2.0
   5:cpu/STM32F103/stm32f10x_exti.c **** * Date               : 05/23/2008
   6:cpu/STM32F103/stm32f10x_exti.c **** * Description        : This file provides all the EXTI firmware functions.
   7:cpu/STM32F103/stm32f10x_exti.c **** ********************************************************************************
   8:cpu/STM32F103/stm32f10x_exti.c **** * THE PRESENT FIRMWARE WHICH IS FOR GUIDANCE ONLY AIMS AT PROVIDING CUSTOMERS
   9:cpu/STM32F103/stm32f10x_exti.c **** * WITH CODING INFORMATION REGARDING THEIR PRODUCTS IN ORDER FOR THEM TO SAVE TIME.
  10:cpu/STM32F103/stm32f10x_exti.c **** * AS A RESULT, STMICROELECTRONICS SHALL NOT BE HELD LIABLE FOR ANY DIRECT,
  11:cpu/STM32F103/stm32f10x_exti.c **** * INDIRECT OR CONSEQUENTIAL DAMAGES WITH RESPECT TO ANY CLAIMS ARISING FROM THE
  12:cpu/STM32F103/stm32f10x_exti.c **** * CONTENT OF SUCH SOFTWARE AND/OR THE USE MADE BY CUSTOMERS OF THE CODING
  13:cpu/STM32F103/stm32f10x_exti.c **** * INFORMATION CONTAINED HEREIN IN CONNECTION WITH THEIR PRODUCTS.
  14:cpu/STM32F103/stm32f10x_exti.c **** * FOR MORE INFORMATION PLEASE CAREFULLY READ THE LICENSE AGREEMENT FILE LOCATED 
  15:cpu/STM32F103/stm32f10x_exti.c **** * IN THE ROOT DIRECTORY OF THIS FIRMWARE PACKAGE.
  16:cpu/STM32F103/stm32f10x_exti.c **** *******************************************************************************/
  17:cpu/STM32F103/stm32f10x_exti.c **** 
  18:cpu/STM32F103/stm32f10x_exti.c **** /* Includes ------------------------------------------------------------------*/
  19:cpu/STM32F103/stm32f10x_exti.c **** #include "stm32f10x_exti.h"
  20:cpu/STM32F103/stm32f10x_exti.c **** 
  21:cpu/STM32F103/stm32f10x_exti.c **** /* Private typedef -----------------------------------------------------------*/
  22:cpu/STM32F103/stm32f10x_exti.c **** /* Private define ------------------------------------------------------------*/
  23:cpu/STM32F103/stm32f10x_exti.c **** #define EXTI_LineNone    ((u32)0x00000)  /* No interrupt selected */
  24:cpu/STM32F103/stm32f10x_exti.c **** 
  25:cpu/STM32F103/stm32f10x_exti.c **** /* Private macro -------------------------------------------------------------*/
  26:cpu/STM32F103/stm32f10x_exti.c **** /* Private variables ---------------------------------------------------------*/
  27:cpu/STM32F103/stm32f10x_exti.c **** /* Private function prototypes -----------------------------------------------*/
  28:cpu/STM32F103/stm32f10x_exti.c **** /* Private functions ---------------------------------------------------------*/
  29:cpu/STM32F103/stm32f10x_exti.c **** 
  30:cpu/STM32F103/stm32f10x_exti.c **** /*******************************************************************************
  31:cpu/STM32F103/stm32f10x_exti.c **** * Function Name  : EXTI_DeInit
  32:cpu/STM32F103/stm32f10x_exti.c **** * Description    : Deinitializes the EXTI peripheral registers to their default 
  33:cpu/STM32F103/stm32f10x_exti.c **** *                  reset values.
  34:cpu/STM32F103/stm32f10x_exti.c **** * Input          : None
  35:cpu/STM32F103/stm32f10x_exti.c **** * Output         : None
  36:cpu/STM32F103/stm32f10x_exti.c **** * Return         : None
  37:cpu/STM32F103/stm32f10x_exti.c **** *******************************************************************************/
  38:cpu/STM32F103/stm32f10x_exti.c **** void EXTI_DeInit(void)
  39:cpu/STM32F103/stm32f10x_exti.c **** {
  27              		.loc 1 39 1 view -0
  28              		.cfi_startproc
  29              		@ args = 0, pretend = 0, frame = 0
  30              		@ frame_needed = 0, uses_anonymous_args = 0
  31              		@ link register save eliminated.
  40:cpu/STM32F103/stm32f10x_exti.c ****   EXTI->IMR = 0x00000000;
  32              		.loc 1 40 3 view .LVU1
  33              		.loc 1 40 13 is_stmt 0 view .LVU2
  34 0000 0022     		movs	r2, #0
  35 0002 044B     		ldr	r3, .L3
  41:cpu/STM32F103/stm32f10x_exti.c ****   EXTI->EMR = 0x00000000;
  42:cpu/STM32F103/stm32f10x_exti.c ****   EXTI->RTSR = 0x00000000; 
  43:cpu/STM32F103/stm32f10x_exti.c ****   EXTI->FTSR = 0x00000000; 
  44:cpu/STM32F103/stm32f10x_exti.c ****   EXTI->PR = 0x0007FFFF;
  36              		.loc 1 44 12 view .LVU3
  37 0004 0449     		ldr	r1, .L3+4
  40:cpu/STM32F103/stm32f10x_exti.c ****   EXTI->IMR = 0x00000000;
  38              		.loc 1 40 13 view .LVU4
  39 0006 1A60     		str	r2, [r3]
  41:cpu/STM32F103/stm32f10x_exti.c ****   EXTI->EMR = 0x00000000;
  40              		.loc 1 41 3 is_stmt 1 view .LVU5
  41:cpu/STM32F103/stm32f10x_exti.c ****   EXTI->EMR = 0x00000000;
  41              		.loc 1 41 13 is_stmt 0 view .LVU6
  42 0008 5A60     		str	r2, [r3, #4]
  42:cpu/STM32F103/stm32f10x_exti.c ****   EXTI->FTSR = 0x00000000; 
  43              		.loc 1 42 3 is_stmt 1 view .LVU7
  42:cpu/STM32F103/stm32f10x_exti.c ****   EXTI->FTSR = 0x00000000; 
  44              		.loc 1 42 14 is_stmt 0 view .LVU8
  45 000a 9A60     		str	r2, [r3, #8]
  43:cpu/STM32F103/stm32f10x_exti.c ****   EXTI->PR = 0x0007FFFF;
  46              		.loc 1 43 3 is_stmt 1 view .LVU9
  43:cpu/STM32F103/stm32f10x_exti.c ****   EXTI->PR = 0x0007FFFF;
  47              		.loc 1 43 14 is_stmt 0 view .LVU10
  48 000c DA60     		str	r2, [r3, #12]
  49              		.loc 1 44 3 is_stmt 1 view .LVU11
  50              		.loc 1 44 12 is_stmt 0 view .LVU12
  51 000e 5961     		str	r1, [r3, #20]
  45:cpu/STM32F103/stm32f10x_exti.c **** }
  52              		.loc 1 45 1 view .LVU13
  53 0010 7047     		bx	lr
  54              	.L4:
  55 0012 00BF     		.align	2
  56              	.L3:
  57 0014 00040140 		.word	1073808384
  58 0018 FFFF0700 		.word	524287
  59              		.cfi_endproc
  60              	.LFE0:
  62              		.align	1
  63              		.p2align 2,,3
  64              		.global	EXTI_Init
  65              		.syntax unified
  66              		.thumb
  67              		.thumb_func
  69              	EXTI_Init:
  70              	.LVL0:
  71              	.LFB1:
  46:cpu/STM32F103/stm32f10x_exti.c **** 
  47:cpu/STM32F103/stm32f10x_exti.c **** /*******************************************************************************
  48:cpu/STM32F103/stm32f10x_exti.c **** * Function Name  : EXTI_Init
  49:cpu/STM32F103/stm32f10x_exti.c **** * Description    : Initializes the EXTI peripheral according to the specified
  50:cpu/STM32F103/stm32f10x_exti.c **** *                  parameters in the EXTI_InitStruct.
  51:cpu/STM32F103/stm32f10x_exti.c **** * Input          : - EXTI_InitStruct: pointer to a EXTI_InitTypeDef structure
  52:cpu/STM32F103/stm32f10x_exti.c **** *                    that contains the configuration information for the EXTI
  53:cpu/STM32F103/stm32f10x_exti.c **** *                    peripheral.
  54:cpu/STM32F103/stm32f10x_exti.c **** * Output         : None
  55:cpu/STM32F103/stm32f10x_exti.c **** * Return         : None
  56:cpu/STM32F103/stm32f10x_exti.c **** *******************************************************************************/
  57:cpu/STM32F103/stm32f10x_exti.c **** void EXTI_Init(EXTI_InitTypeDef* EXTI_InitStruct)
  58:cpu/STM32F103/stm32f10x_exti.c **** {
  72              		.loc 1 58 1 is_stmt 1 view -0
  73              		.cfi_startproc
  74              		@ args = 0, pretend = 0, frame = 0
  75              		@ frame_needed = 0, uses_anonymous_args = 0
  76              		@ link register save eliminated.
  59:cpu/STM32F103/stm32f10x_exti.c ****   /* Check the parameters */
  60:cpu/STM32F103/stm32f10x_exti.c ****   assert_param(IS_EXTI_MODE(EXTI_InitStruct->EXTI_Mode));
  77              		.loc 1 60 3 view .LVU15
  61:cpu/STM32F103/stm32f10x_exti.c ****   assert_param(IS_EXTI_TRIGGER(EXTI_InitStruct->EXTI_Trigger));
  78              		.loc 1 61 3 view .LVU16
  62:cpu/STM32F103/stm32f10x_exti.c ****   assert_param(IS_EXTI_LINE(EXTI_InitStruct->EXTI_Line));  
  79              		.loc 1 62 3 view .LVU17
  63:cpu/STM32F103/stm32f10x_exti.c ****   assert_param(IS_FUNCTIONAL_STATE(EXTI_InitStruct->EXTI_LineCmd));
  80              		.loc 1 63 3 view .LVU18
  64:cpu/STM32F103/stm32f10x_exti.c ****      
  65:cpu/STM32F103/stm32f10x_exti.c ****   if (EXTI_InitStruct->EXTI_LineCmd != DISABLE)
  81              		.loc 1 65 3 view .LVU19
  82              		.loc 1 65 6 is_stmt 0 view .LVU20
  83 001c 8379     		ldrb	r3, [r0, #6]	@ zero_extendqisi2
  84 001e 3BB3     		cbz	r3, .L6
  66:cpu/STM32F103/stm32f10x_exti.c ****   {
  67:cpu/STM32F103/stm32f10x_exti.c ****     /* Clear EXTI line configuration */
  68:cpu/STM32F103/stm32f10x_exti.c ****     EXTI->IMR &= ~EXTI_InitStruct->EXTI_Line;
  85              		.loc 1 68 5 is_stmt 1 view .LVU21
  86              		.loc 1 68 15 is_stmt 0 view .LVU22
  87 0020 1D4B     		ldr	r3, .L14
  88              		.loc 1 68 34 view .LVU23
  89 0022 0168     		ldr	r1, [r0]
  90              		.loc 1 68 15 view .LVU24
  91 0024 1A68     		ldr	r2, [r3]
  58:cpu/STM32F103/stm32f10x_exti.c ****   /* Check the parameters */
  92              		.loc 1 58 1 view .LVU25
  93 0026 10B4     		push	{r4}
  94              	.LCFI0:
  95              		.cfi_def_cfa_offset 4
  96              		.cfi_offset 4, -4
  97              		.loc 1 68 15 view .LVU26
  98 0028 22EA0102 		bic	r2, r2, r1
  99 002c 1A60     		str	r2, [r3]
  69:cpu/STM32F103/stm32f10x_exti.c ****     EXTI->EMR &= ~EXTI_InitStruct->EXTI_Line;
 100              		.loc 1 69 5 is_stmt 1 view .LVU27
 101              		.loc 1 69 15 is_stmt 0 view .LVU28
 102 002e 5A68     		ldr	r2, [r3, #4]
 103 0030 22EA0102 		bic	r2, r2, r1
 104 0034 5A60     		str	r2, [r3, #4]
  70:cpu/STM32F103/stm32f10x_exti.c ****     
  71:cpu/STM32F103/stm32f10x_exti.c ****     *(vu32 *)(EXTI_BASE + (u32)EXTI_InitStruct->EXTI_Mode)|= EXTI_InitStruct->EXTI_Line;
 105              		.loc 1 71 5 is_stmt 1 view .LVU29
 106              		.loc 1 71 59 is_stmt 0 view .LVU30
 107 0036 0279     		ldrb	r2, [r0, #4]	@ zero_extendqisi2
 108 0038 02F18042 		add	r2, r2, #1073741824
 109 003c 02F58232 		add	r2, r2, #66560
 110 0040 1468     		ldr	r4, [r2]
 111 0042 2143     		orrs	r1, r1, r4
 112 0044 1160     		str	r1, [r2]
  72:cpu/STM32F103/stm32f10x_exti.c **** 
  73:cpu/STM32F103/stm32f10x_exti.c ****     /* Clear Rising Falling edge configuration */
  74:cpu/STM32F103/stm32f10x_exti.c ****     EXTI->RTSR &= ~EXTI_InitStruct->EXTI_Line;
 113              		.loc 1 74 5 is_stmt 1 view .LVU31
 114              		.loc 1 74 16 is_stmt 0 view .LVU32
 115 0046 9968     		ldr	r1, [r3, #8]
 116              		.loc 1 74 35 view .LVU33
 117 0048 0268     		ldr	r2, [r0]
 118              		.loc 1 74 16 view .LVU34
 119 004a 21EA0201 		bic	r1, r1, r2
 120 004e 9960     		str	r1, [r3, #8]
  75:cpu/STM32F103/stm32f10x_exti.c ****     EXTI->FTSR &= ~EXTI_InitStruct->EXTI_Line;
 121              		.loc 1 75 5 is_stmt 1 view .LVU35
 122              		.loc 1 75 16 is_stmt 0 view .LVU36
 123 0050 D968     		ldr	r1, [r3, #12]
 124 0052 21EA0201 		bic	r1, r1, r2
 125 0056 D960     		str	r1, [r3, #12]
  76:cpu/STM32F103/stm32f10x_exti.c ****     
  77:cpu/STM32F103/stm32f10x_exti.c ****     /* Select the trigger for the selected external interrupts */
  78:cpu/STM32F103/stm32f10x_exti.c ****     if (EXTI_InitStruct->EXTI_Trigger == EXTI_Trigger_Rising_Falling)
 126              		.loc 1 78 5 is_stmt 1 view .LVU37
 127              		.loc 1 78 24 is_stmt 0 view .LVU38
 128 0058 4179     		ldrb	r1, [r0, #5]	@ zero_extendqisi2
 129              		.loc 1 78 8 view .LVU39
 130 005a 1029     		cmp	r1, #16
 131 005c 13D0     		beq	.L13
  79:cpu/STM32F103/stm32f10x_exti.c ****     {
  80:cpu/STM32F103/stm32f10x_exti.c ****       /* Rising Falling edge */
  81:cpu/STM32F103/stm32f10x_exti.c ****       EXTI->RTSR |= EXTI_InitStruct->EXTI_Line;
  82:cpu/STM32F103/stm32f10x_exti.c ****       EXTI->FTSR |= EXTI_InitStruct->EXTI_Line;
  83:cpu/STM32F103/stm32f10x_exti.c ****     }
  84:cpu/STM32F103/stm32f10x_exti.c ****     else
  85:cpu/STM32F103/stm32f10x_exti.c ****     {
  86:cpu/STM32F103/stm32f10x_exti.c ****       *(vu32 *)(EXTI_BASE + (u32)EXTI_InitStruct->EXTI_Trigger)|= EXTI_InitStruct->EXTI_Line;
 132              		.loc 1 86 7 is_stmt 1 view .LVU40
 133              		.loc 1 86 64 is_stmt 0 view .LVU41
 134 005e 01F18043 		add	r3, r1, #1073741824
 135 0062 03F58233 		add	r3, r3, #66560
 136 0066 1968     		ldr	r1, [r3]
  87:cpu/STM32F103/stm32f10x_exti.c ****     }
  88:cpu/STM32F103/stm32f10x_exti.c ****   }
  89:cpu/STM32F103/stm32f10x_exti.c ****   else
  90:cpu/STM32F103/stm32f10x_exti.c ****   {
  91:cpu/STM32F103/stm32f10x_exti.c ****     /* Disable the selected external lines */
  92:cpu/STM32F103/stm32f10x_exti.c ****     *(vu32 *)(EXTI_BASE + (u32)EXTI_InitStruct->EXTI_Mode)&= ~EXTI_InitStruct->EXTI_Line;
  93:cpu/STM32F103/stm32f10x_exti.c ****   }
  94:cpu/STM32F103/stm32f10x_exti.c **** }
 137              		.loc 1 94 1 view .LVU42
 138 0068 10BC     		pop	{r4}
 139              	.LCFI1:
 140              		.cfi_restore 4
 141              		.cfi_def_cfa_offset 0
  86:cpu/STM32F103/stm32f10x_exti.c ****     }
 142              		.loc 1 86 64 view .LVU43
 143 006a 0A43     		orrs	r2, r2, r1
 144 006c 1A60     		str	r2, [r3]
 145              		.loc 1 94 1 view .LVU44
 146 006e 7047     		bx	lr
 147              	.L6:
  92:cpu/STM32F103/stm32f10x_exti.c ****   }
 148              		.loc 1 92 5 is_stmt 1 view .LVU45
  92:cpu/STM32F103/stm32f10x_exti.c ****   }
 149              		.loc 1 92 59 is_stmt 0 view .LVU46
 150 0070 0379     		ldrb	r3, [r0, #4]	@ zero_extendqisi2
  92:cpu/STM32F103/stm32f10x_exti.c ****   }
 151              		.loc 1 92 62 view .LVU47
 152 0072 0168     		ldr	r1, [r0]
  92:cpu/STM32F103/stm32f10x_exti.c ****   }
 153              		.loc 1 92 59 view .LVU48
 154 0074 03F18043 		add	r3, r3, #1073741824
 155 0078 03F58233 		add	r3, r3, #66560
 156 007c 1A68     		ldr	r2, [r3]
 157 007e 22EA0102 		bic	r2, r2, r1
 158 0082 1A60     		str	r2, [r3]
 159 0084 7047     		bx	lr
 160              	.L13:
 161              	.LCFI2:
 162              		.cfi_def_cfa_offset 4
 163              		.cfi_offset 4, -4
  81:cpu/STM32F103/stm32f10x_exti.c ****       EXTI->FTSR |= EXTI_InitStruct->EXTI_Line;
 164              		.loc 1 81 7 is_stmt 1 view .LVU49
  81:cpu/STM32F103/stm32f10x_exti.c ****       EXTI->FTSR |= EXTI_InitStruct->EXTI_Line;
 165              		.loc 1 81 18 is_stmt 0 view .LVU50
 166 0086 9968     		ldr	r1, [r3, #8]
 167              		.loc 1 94 1 view .LVU51
 168 0088 10BC     		pop	{r4}
 169              	.LCFI3:
 170              		.cfi_restore 4
 171              		.cfi_def_cfa_offset 0
  81:cpu/STM32F103/stm32f10x_exti.c ****       EXTI->FTSR |= EXTI_InitStruct->EXTI_Line;
 172              		.loc 1 81 18 view .LVU52
 173 008a 1143     		orrs	r1, r1, r2
 174 008c 9960     		str	r1, [r3, #8]
  82:cpu/STM32F103/stm32f10x_exti.c ****     }
 175              		.loc 1 82 7 is_stmt 1 view .LVU53
  82:cpu/STM32F103/stm32f10x_exti.c ****     }
 176              		.loc 1 82 18 is_stmt 0 view .LVU54
 177 008e D968     		ldr	r1, [r3, #12]
 178 0090 0A43     		orrs	r2, r2, r1
 179 0092 DA60     		str	r2, [r3, #12]
 180              		.loc 1 94 1 view .LVU55
 181 0094 7047     		bx	lr
 182              	.L15:
 183 0096 00BF     		.align	2
 184              	.L14:
 185 0098 00040140 		.word	1073808384
 186              		.cfi_endproc
 187              	.LFE1:
 189              		.align	1
 190              		.p2align 2,,3
 191              		.global	EXTI_StructInit
 192              		.syntax unified
 193              		.thumb
 194              		.thumb_func
 196              	EXTI_StructInit:
 197              	.LVL1:
 198              	.LFB2:
  95:cpu/STM32F103/stm32f10x_exti.c **** 
  96:cpu/STM32F103/stm32f10x_exti.c **** /*******************************************************************************
  97:cpu/STM32F103/stm32f10x_exti.c **** * Function Name  : EXTI_StructInit
  98:cpu/STM32F103/stm32f10x_exti.c **** * Description    : Fills each EXTI_InitStruct member with its reset value.
  99:cpu/STM32F103/stm32f10x_exti.c **** * Input          : - EXTI_InitStruct: pointer to a EXTI_InitTypeDef structure
 100:cpu/STM32F103/stm32f10x_exti.c **** *                    which will be initialized.
 101:cpu/STM32F103/stm32f10x_exti.c **** * Output         : None
 102:cpu/STM32F103/stm32f10x_exti.c **** * Return         : None
 103:cpu/STM32F103/stm32f10x_exti.c **** *******************************************************************************/
 104:cpu/STM32F103/stm32f10x_exti.c **** void EXTI_StructInit(EXTI_InitTypeDef* EXTI_InitStruct)
 105:cpu/STM32F103/stm32f10x_exti.c **** {
 199              		.loc 1 105 1 is_stmt 1 view -0
 200              		.cfi_startproc
 201              		@ args = 0, pretend = 0, frame = 0
 202              		@ frame_needed = 0, uses_anonymous_args = 0
 203              		@ link register save eliminated.
 106:cpu/STM32F103/stm32f10x_exti.c ****   EXTI_InitStruct->EXTI_Line = EXTI_LineNone;
 204              		.loc 1 106 3 view .LVU57
 107:cpu/STM32F103/stm32f10x_exti.c ****   EXTI_InitStruct->EXTI_Mode = EXTI_Mode_Interrupt;
 205              		.loc 1 107 3 view .LVU58
 108:cpu/STM32F103/stm32f10x_exti.c ****   EXTI_InitStruct->EXTI_Trigger = EXTI_Trigger_Falling;
 206              		.loc 1 108 3 view .LVU59
 109:cpu/STM32F103/stm32f10x_exti.c ****   EXTI_InitStruct->EXTI_LineCmd = DISABLE;
 207              		.loc 1 109 3 view .LVU60
 106:cpu/STM32F103/stm32f10x_exti.c ****   EXTI_InitStruct->EXTI_Mode = EXTI_Mode_Interrupt;
 208              		.loc 1 106 30 is_stmt 0 view .LVU61
 209 009c 0023     		movs	r3, #0
 107:cpu/STM32F103/stm32f10x_exti.c ****   EXTI_InitStruct->EXTI_Trigger = EXTI_Trigger_Falling;
 210              		.loc 1 107 30 view .LVU62
 211 009e 4FF44062 		mov	r2, #3072
 106:cpu/STM32F103/stm32f10x_exti.c ****   EXTI_InitStruct->EXTI_Mode = EXTI_Mode_Interrupt;
 212              		.loc 1 106 30 view .LVU63
 213 00a2 0360     		str	r3, [r0]
 107:cpu/STM32F103/stm32f10x_exti.c ****   EXTI_InitStruct->EXTI_Trigger = EXTI_Trigger_Falling;
 214              		.loc 1 107 30 view .LVU64
 215 00a4 8280     		strh	r2, [r0, #4]	@ movhi
 216              		.loc 1 109 33 view .LVU65
 217 00a6 8371     		strb	r3, [r0, #6]
 110:cpu/STM32F103/stm32f10x_exti.c **** }
 218              		.loc 1 110 1 view .LVU66
 219 00a8 7047     		bx	lr
 220              		.cfi_endproc
 221              	.LFE2:
 223              		.align	1
 224 00aa 00BF     		.p2align 2,,3
 225              		.global	EXTI_GenerateSWInterrupt
 226              		.syntax unified
 227              		.thumb
 228              		.thumb_func
 230              	EXTI_GenerateSWInterrupt:
 231              	.LVL2:
 232              	.LFB3:
 111:cpu/STM32F103/stm32f10x_exti.c **** 
 112:cpu/STM32F103/stm32f10x_exti.c **** /*******************************************************************************
 113:cpu/STM32F103/stm32f10x_exti.c **** * Function Name  : EXTI_GenerateSWInterrupt
 114:cpu/STM32F103/stm32f10x_exti.c **** * Description    : Generates a Software interrupt.
 115:cpu/STM32F103/stm32f10x_exti.c **** * Input          : - EXTI_Line: specifies the EXTI lines to be enabled or
 116:cpu/STM32F103/stm32f10x_exti.c **** *                    disabled.
 117:cpu/STM32F103/stm32f10x_exti.c **** *                    This parameter can be any combination of EXTI_Linex where 
 118:cpu/STM32F103/stm32f10x_exti.c **** *                    x can be (0..18).
 119:cpu/STM32F103/stm32f10x_exti.c **** * Output         : None
 120:cpu/STM32F103/stm32f10x_exti.c **** * Return         : None
 121:cpu/STM32F103/stm32f10x_exti.c **** *******************************************************************************/
 122:cpu/STM32F103/stm32f10x_exti.c **** void EXTI_GenerateSWInterrupt(u32 EXTI_Line)
 123:cpu/STM32F103/stm32f10x_exti.c **** {
 233              		.loc 1 123 1 is_stmt 1 view -0
 234              		.cfi_startproc
 235              		@ args = 0, pretend = 0, frame = 0
 236              		@ frame_needed = 0, uses_anonymous_args = 0
 237              		@ link register save eliminated.
 124:cpu/STM32F103/stm32f10x_exti.c ****   /* Check the parameters */
 125:cpu/STM32F103/stm32f10x_exti.c ****   assert_param(IS_EXTI_LINE(EXTI_Line));
 238              		.loc 1 125 3 view .LVU68
 126:cpu/STM32F103/stm32f10x_exti.c ****   
 127:cpu/STM32F103/stm32f10x_exti.c ****   EXTI->SWIER |= EXTI_Line;
 239              		.loc 1 127 3 view .LVU69
 240              		.loc 1 127 15 is_stmt 0 view .LVU70
 241 00ac 024A     		ldr	r2, .L18
 242 00ae 1369     		ldr	r3, [r2, #16]
 243 00b0 0343     		orrs	r3, r3, r0
 244 00b2 1361     		str	r3, [r2, #16]
 128:cpu/STM32F103/stm32f10x_exti.c **** }
 245              		.loc 1 128 1 view .LVU71
 246 00b4 7047     		bx	lr
 247              	.L19:
 248 00b6 00BF     		.align	2
 249              	.L18:
 250 00b8 00040140 		.word	1073808384
 251              		.cfi_endproc
 252              	.LFE3:
 254              		.align	1
 255              		.p2align 2,,3
 256              		.global	EXTI_GetFlagStatus
 257              		.syntax unified
 258              		.thumb
 259              		.thumb_func
 261              	EXTI_GetFlagStatus:
 262              	.LVL3:
 263              	.LFB4:
 129:cpu/STM32F103/stm32f10x_exti.c **** 
 130:cpu/STM32F103/stm32f10x_exti.c **** /*******************************************************************************
 131:cpu/STM32F103/stm32f10x_exti.c **** * Function Name  : EXTI_GetFlagStatus
 132:cpu/STM32F103/stm32f10x_exti.c **** * Description    : Checks whether the specified EXTI line flag is set or not.
 133:cpu/STM32F103/stm32f10x_exti.c **** * Input          : - EXTI_Line: specifies the EXTI line flag to check.
 134:cpu/STM32F103/stm32f10x_exti.c **** *                    This parameter can be:
 135:cpu/STM32F103/stm32f10x_exti.c **** *                       - EXTI_Linex: External interrupt line x where x(0..18)
 136:cpu/STM32F103/stm32f10x_exti.c **** * Output         : None
 137:cpu/STM32F103/stm32f10x_exti.c **** * Return         : The new state of EXTI_Line (SET or RESET).
 138:cpu/STM32F103/stm32f10x_exti.c **** *******************************************************************************/
 139:cpu/STM32F103/stm32f10x_exti.c **** FlagStatus EXTI_GetFlagStatus(u32 EXTI_Line)
 140:cpu/STM32F103/stm32f10x_exti.c **** {
 264              		.loc 1 140 1 is_stmt 1 view -0
 265              		.cfi_startproc
 266              		@ args = 0, pretend = 0, frame = 0
 267              		@ frame_needed = 0, uses_anonymous_args = 0
 268              		@ link register save eliminated.
 141:cpu/STM32F103/stm32f10x_exti.c ****   FlagStatus bitstatus = RESET;
 269              		.loc 1 141 3 view .LVU73
 142:cpu/STM32F103/stm32f10x_exti.c **** 
 143:cpu/STM32F103/stm32f10x_exti.c ****   /* Check the parameters */
 144:cpu/STM32F103/stm32f10x_exti.c ****   assert_param(IS_GET_EXTI_LINE(EXTI_Line));
 270              		.loc 1 144 3 view .LVU74
 145:cpu/STM32F103/stm32f10x_exti.c ****   
 146:cpu/STM32F103/stm32f10x_exti.c ****   if ((EXTI->PR & EXTI_Line) != (u32)RESET)
 271              		.loc 1 146 3 view .LVU75
 272              		.loc 1 146 12 is_stmt 0 view .LVU76
 273 00bc 034B     		ldr	r3, .L21
 274 00be 5B69     		ldr	r3, [r3, #20]
 275              	.LVL4:
 147:cpu/STM32F103/stm32f10x_exti.c ****   {
 148:cpu/STM32F103/stm32f10x_exti.c ****     bitstatus = SET;
 149:cpu/STM32F103/stm32f10x_exti.c ****   }
 150:cpu/STM32F103/stm32f10x_exti.c ****   else
 151:cpu/STM32F103/stm32f10x_exti.c ****   {
 152:cpu/STM32F103/stm32f10x_exti.c ****     bitstatus = RESET;
 153:cpu/STM32F103/stm32f10x_exti.c ****   }
 154:cpu/STM32F103/stm32f10x_exti.c ****   return bitstatus;
 276              		.loc 1 154 3 is_stmt 1 view .LVU77
 146:cpu/STM32F103/stm32f10x_exti.c ****   {
 277              		.loc 1 146 6 is_stmt 0 view .LVU78
 278 00c0 0342     		tst	r3, r0
 155:cpu/STM32F103/stm32f10x_exti.c **** }
 279              		.loc 1 155 1 view .LVU79
 280 00c2 14BF     		ite	ne
 281 00c4 0120     		movne	r0, #1
 282              	.LVL5:
 283              		.loc 1 155 1 view .LVU80
 284 00c6 0020     		moveq	r0, #0
 285 00c8 7047     		bx	lr
 286              	.L22:
 287 00ca 00BF     		.align	2
 288              	.L21:
 289 00cc 00040140 		.word	1073808384
 290              		.cfi_endproc
 291              	.LFE4:
 293              		.align	1
 294              		.p2align 2,,3
 295              		.global	EXTI_ClearFlag
 296              		.syntax unified
 297              		.thumb
 298              		.thumb_func
 300              	EXTI_ClearFlag:
 301              	.LVL6:
 302              	.LFB5:
 156:cpu/STM32F103/stm32f10x_exti.c **** 
 157:cpu/STM32F103/stm32f10x_exti.c **** /*******************************************************************************
 158:cpu/STM32F103/stm32f10x_exti.c **** * Function Name  : EXTI_ClearFlag
 159:cpu/STM32F103/stm32f10x_exti.c **** * Description    : Clears the EXTI’s line pending flags.
 160:cpu/STM32F103/stm32f10x_exti.c **** * Input          : - EXTI_Line: specifies the EXTI lines flags to clear.
 161:cpu/STM32F103/stm32f10x_exti.c **** *                    This parameter can be any combination of EXTI_Linex where 
 162:cpu/STM32F103/stm32f10x_exti.c **** *                    x can be (0..18).
 163:cpu/STM32F103/stm32f10x_exti.c **** * Output         : None
 164:cpu/STM32F103/stm32f10x_exti.c **** * Return         : None
 165:cpu/STM32F103/stm32f10x_exti.c **** *******************************************************************************/
 166:cpu/STM32F103/stm32f10x_exti.c **** void EXTI_ClearFlag(u32 EXTI_Line)
 167:cpu/STM32F103/stm32f10x_exti.c **** {
 303              		.loc 1 167 1 is_stmt 1 view -0
 304              		.cfi_startproc
 305              		@ args = 0, pretend = 0, frame = 0
 306              		@ frame_needed = 0, uses_anonymous_args = 0
 307              		@ link register save eliminated.
 168:cpu/STM32F103/stm32f10x_exti.c ****   /* Check the parameters */
 169:cpu/STM32F103/stm32f10x_exti.c ****   assert_param(IS_EXTI_LINE(EXTI_Line));
 308              		.loc 1 169 3 view .LVU82
 170:cpu/STM32F103/stm32f10x_exti.c ****   
 171:cpu/STM32F103/stm32f10x_exti.c ****   EXTI->PR = EXTI_Line;
 309              		.loc 1 171 3 view .LVU83
 310              		.loc 1 171 12 is_stmt 0 view .LVU84
 311 00d0 014B     		ldr	r3, .L24
 312 00d2 5861     		str	r0, [r3, #20]
 172:cpu/STM32F103/stm32f10x_exti.c **** }
 313              		.loc 1 172 1 view .LVU85
 314 00d4 7047     		bx	lr
 315              	.L25:
 316 00d6 00BF     		.align	2
 317              	.L24:
 318 00d8 00040140 		.word	1073808384
 319              		.cfi_endproc
 320              	.LFE5:
 322              		.align	1
 323              		.p2align 2,,3
 324              		.global	EXTI_GetITStatus
 325              		.syntax unified
 326              		.thumb
 327              		.thumb_func
 329              	EXTI_GetITStatus:
 330              	.LVL7:
 331              	.LFB6:
 173:cpu/STM32F103/stm32f10x_exti.c **** 
 174:cpu/STM32F103/stm32f10x_exti.c **** /*******************************************************************************
 175:cpu/STM32F103/stm32f10x_exti.c **** * Function Name  : EXTI_GetITStatus
 176:cpu/STM32F103/stm32f10x_exti.c **** * Description    : Checks whether the specified EXTI line is asserted or not.
 177:cpu/STM32F103/stm32f10x_exti.c **** * Input          : - EXTI_Line: specifies the EXTI line to check.
 178:cpu/STM32F103/stm32f10x_exti.c **** *                    This parameter can be:
 179:cpu/STM32F103/stm32f10x_exti.c **** *                       - EXTI_Linex: External interrupt line x where x(0..18)
 180:cpu/STM32F103/stm32f10x_exti.c **** * Output         : None
 181:cpu/STM32F103/stm32f10x_exti.c **** * Return         : The new state of EXTI_Line (SET or RESET).
 182:cpu/STM32F103/stm32f10x_exti.c **** *******************************************************************************/
 183:cpu/STM32F103/stm32f10x_exti.c **** ITStatus EXTI_GetITStatus(u32 EXTI_Line)
 184:cpu/STM32F103/stm32f10x_exti.c **** {
 332              		.loc 1 184 1 is_stmt 1 view -0
 333              		.cfi_startproc
 334              		@ args = 0, pretend = 0, frame = 0
 335              		@ frame_needed = 0, uses_anonymous_args = 0
 336              		@ link register save eliminated.
 185:cpu/STM32F103/stm32f10x_exti.c ****   ITStatus bitstatus = RESET;
 337              		.loc 1 185 3 view .LVU87
 186:cpu/STM32F103/stm32f10x_exti.c ****   u32 enablestatus = 0;
 338              		.loc 1 186 3 view .LVU88
 187:cpu/STM32F103/stm32f10x_exti.c **** 
 188:cpu/STM32F103/stm32f10x_exti.c ****   /* Check the parameters */
 189:cpu/STM32F103/stm32f10x_exti.c ****   assert_param(IS_GET_EXTI_LINE(EXTI_Line));
 339              		.loc 1 189 3 view .LVU89
 190:cpu/STM32F103/stm32f10x_exti.c ****   
 191:cpu/STM32F103/stm32f10x_exti.c ****   enablestatus =  EXTI->IMR & EXTI_Line;
 340              		.loc 1 191 3 view .LVU90
 341              		.loc 1 191 23 is_stmt 0 view .LVU91
 342 00dc 054B     		ldr	r3, .L29
 184:cpu/STM32F103/stm32f10x_exti.c ****   ITStatus bitstatus = RESET;
 343              		.loc 1 184 1 view .LVU92
 344 00de 0246     		mov	r2, r0
 345              		.loc 1 191 23 view .LVU93
 346 00e0 1968     		ldr	r1, [r3]
 347              	.LVL8:
 192:cpu/STM32F103/stm32f10x_exti.c **** 
 193:cpu/STM32F103/stm32f10x_exti.c ****   if (((EXTI->PR & EXTI_Line) != (u32)RESET) && (enablestatus != (u32)RESET))
 348              		.loc 1 193 3 is_stmt 1 view .LVU94
 349              		.loc 1 193 13 is_stmt 0 view .LVU95
 350 00e2 5B69     		ldr	r3, [r3, #20]
 351              		.loc 1 193 6 view .LVU96
 352 00e4 1840     		ands	r0, r3, r0
 353              	.LVL9:
 354              		.loc 1 193 6 view .LVU97
 355 00e6 03D0     		beq	.L27
 356              		.loc 1 193 46 discriminator 1 view .LVU98
 357 00e8 1142     		tst	r1, r2
 194:cpu/STM32F103/stm32f10x_exti.c ****   {
 195:cpu/STM32F103/stm32f10x_exti.c ****     bitstatus = SET;
 196:cpu/STM32F103/stm32f10x_exti.c ****   }
 197:cpu/STM32F103/stm32f10x_exti.c ****   else
 198:cpu/STM32F103/stm32f10x_exti.c ****   {
 199:cpu/STM32F103/stm32f10x_exti.c ****     bitstatus = RESET;
 358              		.loc 1 199 15 discriminator 1 view .LVU99
 359 00ea 14BF     		ite	ne
 360 00ec 0120     		movne	r0, #1
 361 00ee 0020     		moveq	r0, #0
 362              	.L27:
 363              	.LVL10:
 200:cpu/STM32F103/stm32f10x_exti.c ****   }
 201:cpu/STM32F103/stm32f10x_exti.c ****   return bitstatus;
 364              		.loc 1 201 3 is_stmt 1 view .LVU100
 202:cpu/STM32F103/stm32f10x_exti.c **** }
 365              		.loc 1 202 1 is_stmt 0 view .LVU101
 366 00f0 7047     		bx	lr
 367              	.L30:
 368 00f2 00BF     		.align	2
 369              	.L29:
 370 00f4 00040140 		.word	1073808384
 371              		.cfi_endproc
 372              	.LFE6:
 374              		.align	1
 375              		.p2align 2,,3
 376              		.global	EXTI_ClearITPendingBit
 377              		.syntax unified
 378              		.thumb
 379              		.thumb_func
 381              	EXTI_ClearITPendingBit:
 382              	.LFB9:
 383              		.cfi_startproc
 384              		@ args = 0, pretend = 0, frame = 0
 385              		@ frame_needed = 0, uses_anonymous_args = 0
 386              		@ link register save eliminated.
 387 00f8 014B     		ldr	r3, .L32
 388 00fa 5861     		str	r0, [r3, #20]
 389 00fc 7047     		bx	lr
 390              	.L33:
 391 00fe 00BF     		.align	2
 392              	.L32:
 393 0100 00040140 		.word	1073808384
 394              		.cfi_endproc
 395              	.LFE9:
 397              	.Letext0:
 398              		.file 2 "cpu/STM32F103/stm32f10x_type.h"
 399              		.file 3 "cpu/STM32F103/stm32f10x_map.h"
 400              		.file 4 "cpu/STM32F103/stm32f10x_exti.h"