   1              		.cpu cortex-m3
   2              		.arch armv7-m
   3              		.fpu softvfp
   4              		.eabi_attribute 20, 1
   5              		.eabi_attribute 21, 1
   6              		.eabi_attribute 23, 3
   7              		.eabi_attribute 24, 1
   8              		.eabi_attribute 25, 1
   9              		.eabi_attribute 26, 1
  10              		.eabi_attribute 30, 2
  11              		.eabi_attribute 34, 1
  12              		.eabi_attribute 18, 4
  13              		.file	"stm32f10x_it.c"
  14              		.text
  15              	.Ltext0:
  16              		.cfi_sections	.debug_frame
  17              		.align	1
  18              		.p2align 2,,3
  19              		.global	NMIException
  20              		.syntax unified
  21              		.thumb
  22              		.thumb_func
  24              	NMIException:
  25              	.LFB0:
  26              		.file 1 "cpu/STM32F103/stm32f10x_it.c"
   1:cpu/STM32F103/stm32f10x_it.c **** /******************** (C) COPYRIGHT 2008 STMicroelectronics ********************
   2:cpu/STM32F103/stm32f10x_it.c **** * File Name          : stm32f10x_it.c
   3:cpu/STM32F103/stm32f10x_it.c **** * Author             : IMS Systems Lab
   4:cpu/STM32F103/stm32f10x_it.c **** * Date First Issued  : 21/11/07
   5:cpu/STM32F103/stm32f10x_it.c **** * Description        : Main Interrupt Service Routines.
   6:cpu/STM32F103/stm32f10x_it.c **** *                      This file provides template for all exceptions handler
   7:cpu/STM32F103/stm32f10x_it.c **** *                      and peripherals interrupt service routine.
   8:cpu/STM32F103/stm32f10x_it.c **** ********************************************************************************
   9:cpu/STM32F103/stm32f10x_it.c **** * History:
  10:cpu/STM32F103/stm32f10x_it.c **** * 21/11/07 v1.0
  11:cpu/STM32F103/stm32f10x_it.c **** * 05/29/08 v2.0
  12:cpu/STM32F103/stm32f10x_it.c **** * 07/02/08 v2.0.1
  13:cpu/STM32F103/stm32f10x_it.c **** ********************************************************************************
  14:cpu/STM32F103/stm32f10x_it.c **** * THE PRESENT SOFTWARE WHICH IS FOR GUIDANCE ONLY AIMS AT PROVIDING CUSTOMERS
  15:cpu/STM32F103/stm32f10x_it.c **** * WITH CODING INFORMATION REGARDING THEIR PRODUCTS IN ORDER FOR THEM TO SAVE TIME.
  16:cpu/STM32F103/stm32f10x_it.c **** * AS A RESULT, STMICROELECTRONICS SHALL NOT BE HELD LIABLE FOR ANY DIRECT,
  17:cpu/STM32F103/stm32f10x_it.c **** * INDIRECT OR CONSEQUENTIAL DAMAGES WITH RESPECT TO ANY CLAIMS ARISING FROM THE
  18:cpu/STM32F103/stm32f10x_it.c **** * CONTENT OF SUCH SOFTWARE AND/OR THE USE MADE BY CUSTOMERS OF THE CODING
  19:cpu/STM32F103/stm32f10x_it.c **** * INFORMATION CONTAINED HEREIN IN CONNECTION WITH THEIR PRODUCTS.
  20:cpu/STM32F103/stm32f10x_it.c **** * FOR MORE INFORMATION PLEASE CAREFULLY READ THE LICENSE AGREEMENT FILE LOCATED
  21:cpu/STM32F103/stm32f10x_it.c **** * IN THE ROOT DIRECTORY OF THIS FIRMWARE PACKAGE.
  22:cpu/STM32F103/stm32f10x_it.c **** *
  23:cpu/STM32F103/stm32f10x_it.c **** * THIS SOURCE CODE IS PROTECTED BY A LICENSE.
  24:cpu/STM32F103/stm32f10x_it.c **** * FOR MORE INFORMATION PLEASE CAREFULLY READ THE LICENSE AGREEMENT FILE LOCATED
  25:cpu/STM32F103/stm32f10x_it.c **** * IN THE ROOT DIRECTORY OF THIS FIRMWARE PACKAGE.
  26:cpu/STM32F103/stm32f10x_it.c **** *******************************************************************************/
  27:cpu/STM32F103/stm32f10x_it.c **** 
  28:cpu/STM32F103/stm32f10x_it.c **** /* Includes ------------------------------------------------------------------*/
  29:cpu/STM32F103/stm32f10x_it.c **** #include "stm32f10x_it.h"
  30:cpu/STM32F103/stm32f10x_it.c **** 
  31:cpu/STM32F103/stm32f10x_it.c **** /* Private typedef -----------------------------------------------------------*/
  32:cpu/STM32F103/stm32f10x_it.c **** /* Private define ------------------------------------------------------------*/
  33:cpu/STM32F103/stm32f10x_it.c **** 
  34:cpu/STM32F103/stm32f10x_it.c **** /* Private macro -------------------------------------------------------------*/
  35:cpu/STM32F103/stm32f10x_it.c **** /* Private variables ---------------------------------------------------------*/
  36:cpu/STM32F103/stm32f10x_it.c **** /* Private function prototypes -----------------------------------------------*/
  37:cpu/STM32F103/stm32f10x_it.c **** //extern void UART3Irq(void);
  38:cpu/STM32F103/stm32f10x_it.c **** //extern void Timer1CommutationInterruptHandler(void);
  39:cpu/STM32F103/stm32f10x_it.c **** 
  40:cpu/STM32F103/stm32f10x_it.c **** extern PIrqFunction CanTxUsbHpIrqVector;
  41:cpu/STM32F103/stm32f10x_it.c **** extern PIrqFunction CanRx0UsbLpIrqVector;
  42:cpu/STM32F103/stm32f10x_it.c **** extern PIrqFunction CanRx1IrqVector;
  43:cpu/STM32F103/stm32f10x_it.c **** extern PIrqFunction CanSceIrqVector;
  44:cpu/STM32F103/stm32f10x_it.c **** 
  45:cpu/STM32F103/stm32f10x_it.c **** /* Private functions ---------------------------------------------------------*/
  46:cpu/STM32F103/stm32f10x_it.c **** 
  47:cpu/STM32F103/stm32f10x_it.c **** /*******************************************************************************
  48:cpu/STM32F103/stm32f10x_it.c **** * Function Name  : NMIException
  49:cpu/STM32F103/stm32f10x_it.c **** * Description    : This function handles NMI exception.
  50:cpu/STM32F103/stm32f10x_it.c **** * Input          : None
  51:cpu/STM32F103/stm32f10x_it.c **** * Output         : None
  52:cpu/STM32F103/stm32f10x_it.c **** * Return         : None
  53:cpu/STM32F103/stm32f10x_it.c **** *******************************************************************************/
  54:cpu/STM32F103/stm32f10x_it.c **** void NMIException(void)
  55:cpu/STM32F103/stm32f10x_it.c **** {
  27              		.loc 1 55 1 view -0
  28              		.cfi_startproc
  29              		@ args = 0, pretend = 0, frame = 0
  30              		@ frame_needed = 0, uses_anonymous_args = 0
  31              		@ link register save eliminated.
  56:cpu/STM32F103/stm32f10x_it.c **** }
  32              		.loc 1 56 1 view .LVU1
  33 0000 7047     		bx	lr
  34              		.cfi_endproc
  35              	.LFE0:
  37              		.align	1
  38 0002 00BF     		.p2align 2,,3
  39              		.global	HardFaultException
  40              		.syntax unified
  41              		.thumb
  42              		.thumb_func
  44              	HardFaultException:
  45              	.LFB1:
  57:cpu/STM32F103/stm32f10x_it.c **** 
  58:cpu/STM32F103/stm32f10x_it.c **** /*******************************************************************************
  59:cpu/STM32F103/stm32f10x_it.c **** * Function Name  : HardFaultException
  60:cpu/STM32F103/stm32f10x_it.c **** * Description    : This function handles Hard Fault exception.
  61:cpu/STM32F103/stm32f10x_it.c **** * Input          : None
  62:cpu/STM32F103/stm32f10x_it.c **** * Output         : None
  63:cpu/STM32F103/stm32f10x_it.c **** * Return         : None
  64:cpu/STM32F103/stm32f10x_it.c **** *******************************************************************************/
  65:cpu/STM32F103/stm32f10x_it.c **** void HardFaultException(void)
  66:cpu/STM32F103/stm32f10x_it.c **** {
  46              		.loc 1 66 1 view -0
  47              		.cfi_startproc
  48              		@ Volatile: function does not return.
  49              		@ args = 0, pretend = 0, frame = 0
  50              		@ frame_needed = 0, uses_anonymous_args = 0
  51              		@ link register save eliminated.
  52              	.L4:
  67:cpu/STM32F103/stm32f10x_it.c ****   /* Go to infinite loop when Hard Fault exception occurs */
  68:cpu/STM32F103/stm32f10x_it.c ****   while (1)
  53              		.loc 1 68 3 discriminator 1 view .LVU3
  69:cpu/STM32F103/stm32f10x_it.c ****   {
  70:cpu/STM32F103/stm32f10x_it.c ****   }
  54              		.loc 1 70 3 discriminator 1 view .LVU4
  68:cpu/STM32F103/stm32f10x_it.c ****   {
  55              		.loc 1 68 9 discriminator 1 view .LVU5
  56 0004 FEE7     		b	.L4
  57              		.cfi_endproc
  58              	.LFE1:
  60              		.align	1
  61 0006 00BF     		.p2align 2,,3
  62              		.global	MemManageException
  63              		.syntax unified
  64              		.thumb
  65              		.thumb_func
  67              	MemManageException:
  68              	.LFB2:
  71:cpu/STM32F103/stm32f10x_it.c **** }
  72:cpu/STM32F103/stm32f10x_it.c **** 
  73:cpu/STM32F103/stm32f10x_it.c **** /*******************************************************************************
  74:cpu/STM32F103/stm32f10x_it.c **** * Function Name  : MemManageException
  75:cpu/STM32F103/stm32f10x_it.c **** * Description    : This function handles Memory Manage exception.
  76:cpu/STM32F103/stm32f10x_it.c **** * Input          : None
  77:cpu/STM32F103/stm32f10x_it.c **** * Output         : None
  78:cpu/STM32F103/stm32f10x_it.c **** * Return         : None
  79:cpu/STM32F103/stm32f10x_it.c **** *******************************************************************************/
  80:cpu/STM32F103/stm32f10x_it.c **** void MemManageException(void)
  81:cpu/STM32F103/stm32f10x_it.c **** {
  69              		.loc 1 81 1 view -0
  70              		.cfi_startproc
  71              		@ Volatile: function does not return.
  72              		@ args = 0, pretend = 0, frame = 0
  73              		@ frame_needed = 0, uses_anonymous_args = 0
  74              		@ link register save eliminated.
  75              	.L6:
  82:cpu/STM32F103/stm32f10x_it.c ****   /* Go to infinite loop when Memory Manage exception occurs */
  83:cpu/STM32F103/stm32f10x_it.c ****   while (1)
  76              		.loc 1 83 3 discriminator 1 view .LVU7
  84:cpu/STM32F103/stm32f10x_it.c ****   {
  85:cpu/STM32F103/stm32f10x_it.c ****   }
  77              		.loc 1 85 3 discriminator 1 view .LVU8
  83:cpu/STM32F103/stm32f10x_it.c ****   {
  78              		.loc 1 83 9 discriminator 1 view .LVU9
  79 0008 FEE7     		b	.L6
  80              		.cfi_endproc
  81              	.LFE2:
  83              		.align	1
  84 000a 00BF     		.p2align 2,,3
  85              		.global	BusFaultException
  86              		.syntax unified
  87              		.thumb
  88              		.thumb_func
  90              	BusFaultException:
  91              	.LFB3:
  86:cpu/STM32F103/stm32f10x_it.c **** }
  87:cpu/STM32F103/stm32f10x_it.c **** 
  88:cpu/STM32F103/stm32f10x_it.c **** /*******************************************************************************
  89:cpu/STM32F103/stm32f10x_it.c **** * Function Name  : BusFaultException
  90:cpu/STM32F103/stm32f10x_it.c **** * Description    : This function handles Bus Fault exception.
  91:cpu/STM32F103/stm32f10x_it.c **** * Input          : None
  92:cpu/STM32F103/stm32f10x_it.c **** * Output         : None
  93:cpu/STM32F103/stm32f10x_it.c **** * Return         : None
  94:cpu/STM32F103/stm32f10x_it.c **** *******************************************************************************/
  95:cpu/STM32F103/stm32f10x_it.c **** void BusFaultException(void)
  96:cpu/STM32F103/stm32f10x_it.c **** {
  92              		.loc 1 96 1 view -0
  93              		.cfi_startproc
  94              		@ Volatile: function does not return.
  95              		@ args = 0, pretend = 0, frame = 0
  96              		@ frame_needed = 0, uses_anonymous_args = 0
  97              		@ link register save eliminated.
  98              	.L8:
  97:cpu/STM32F103/stm32f10x_it.c ****   /* Go to infinite loop when Bus Fault exception occurs */
  98:cpu/STM32F103/stm32f10x_it.c ****   while (1)
  99              		.loc 1 98 3 discriminator 1 view .LVU11
  99:cpu/STM32F103/stm32f10x_it.c ****   {
 100:cpu/STM32F103/stm32f10x_it.c ****   }
 100              		.loc 1 100 3 discriminator 1 view .LVU12
  98:cpu/STM32F103/stm32f10x_it.c ****   {
 101              		.loc 1 98 9 discriminator 1 view .LVU13
 102 000c FEE7     		b	.L8
 103              		.cfi_endproc
 104              	.LFE3:
 106              		.align	1
 107 000e 00BF     		.p2align 2,,3
 108              		.global	UsageFaultException
 109              		.syntax unified
 110              		.thumb
 111              		.thumb_func
 113              	UsageFaultException:
 114              	.LFB4:
 101:cpu/STM32F103/stm32f10x_it.c **** }
 102:cpu/STM32F103/stm32f10x_it.c **** 
 103:cpu/STM32F103/stm32f10x_it.c **** /*******************************************************************************
 104:cpu/STM32F103/stm32f10x_it.c **** * Function Name  : UsageFaultException
 105:cpu/STM32F103/stm32f10x_it.c **** * Description    : This function handles Usage Fault exception.
 106:cpu/STM32F103/stm32f10x_it.c **** * Input          : None
 107:cpu/STM32F103/stm32f10x_it.c **** * Output         : None
 108:cpu/STM32F103/stm32f10x_it.c **** * Return         : None
 109:cpu/STM32F103/stm32f10x_it.c **** *******************************************************************************/
 110:cpu/STM32F103/stm32f10x_it.c **** void UsageFaultException(void)
 111:cpu/STM32F103/stm32f10x_it.c **** {
 115              		.loc 1 111 1 view -0
 116              		.cfi_startproc
 117              		@ Volatile: function does not return.
 118              		@ args = 0, pretend = 0, frame = 0
 119              		@ frame_needed = 0, uses_anonymous_args = 0
 120              		@ link register save eliminated.
 121              	.L10:
 112:cpu/STM32F103/stm32f10x_it.c ****   /* Go to infinite loop when Usage Fault exception occurs */
 113:cpu/STM32F103/stm32f10x_it.c ****   while (1)
 122              		.loc 1 113 3 discriminator 1 view .LVU15
 114:cpu/STM32F103/stm32f10x_it.c ****   {
 115:cpu/STM32F103/stm32f10x_it.c ****   }
 123              		.loc 1 115 3 discriminator 1 view .LVU16
 113:cpu/STM32F103/stm32f10x_it.c ****   {
 124              		.loc 1 113 9 discriminator 1 view .LVU17
 125 0010 FEE7     		b	.L10
 126              		.cfi_endproc
 127              	.LFE4:
 129              		.align	1
 130 0012 00BF     		.p2align 2,,3
 131              		.global	DebugMonitor
 132              		.syntax unified
 133              		.thumb
 134              		.thumb_func
 136              	DebugMonitor:
 137              	.LFB61:
 138              		.cfi_startproc
 139              		@ args = 0, pretend = 0, frame = 0
 140              		@ frame_needed = 0, uses_anonymous_args = 0
 141              		@ link register save eliminated.
 142 0014 7047     		bx	lr
 143              		.cfi_endproc
 144              	.LFE61:
 146              		.align	1
 147 0016 00BF     		.p2align 2,,3
 148              		.global	SVCHandler
 149              		.syntax unified
 150              		.thumb
 151              		.thumb_func
 153              	SVCHandler:
 154              	.LFB63:
 155              		.cfi_startproc
 156              		@ args = 0, pretend = 0, frame = 0
 157              		@ frame_needed = 0, uses_anonymous_args = 0
 158              		@ link register save eliminated.
 159 0018 7047     		bx	lr
 160              		.cfi_endproc
 161              	.LFE63:
 163              		.align	1
 164 001a 00BF     		.p2align 2,,3
 165              		.global	PendSVC
 166              		.syntax unified
 167              		.thumb
 168              		.thumb_func
 170              	PendSVC:
 171              	.LFB65:
 172              		.cfi_startproc
 173              		@ args = 0, pretend = 0, frame = 0
 174              		@ frame_needed = 0, uses_anonymous_args = 0
 175              		@ link register save eliminated.
 176 001c 7047     		bx	lr
 177              		.cfi_endproc
 178              	.LFE65:
 180              		.align	1
 181 001e 00BF     		.p2align 2,,3
 182              		.global	WWDG_IRQHandler
 183              		.syntax unified
 184              		.thumb
 185              		.thumb_func
 187              	WWDG_IRQHandler:
 188              	.LFB67:
 189              		.cfi_startproc
 190              		@ args = 0, pretend = 0, frame = 0
 191              		@ frame_needed = 0, uses_anonymous_args = 0
 192              		@ link register save eliminated.
 193 0020 7047     		bx	lr
 194              		.cfi_endproc
 195              	.LFE67:
 197              		.align	1
 198 0022 00BF     		.p2align 2,,3
 199              		.global	PVD_IRQHandler
 200              		.syntax unified
 201              		.thumb
 202              		.thumb_func
 204              	PVD_IRQHandler:
 205              	.LFB69:
 206              		.cfi_startproc
 207              		@ args = 0, pretend = 0, frame = 0
 208              		@ frame_needed = 0, uses_anonymous_args = 0
 209              		@ link register save eliminated.
 210 0024 7047     		bx	lr
 211              		.cfi_endproc
 212              	.LFE69:
 214              		.align	1
 215 0026 00BF     		.p2align 2,,3
 216              		.global	TAMPER_IRQHandler
 217              		.syntax unified
 218              		.thumb
 219              		.thumb_func
 221              	TAMPER_IRQHandler:
 222              	.LFB71:
 223              		.cfi_startproc
 224              		@ args = 0, pretend = 0, frame = 0
 225              		@ frame_needed = 0, uses_anonymous_args = 0
 226              		@ link register save eliminated.
 227 0028 7047     		bx	lr
 228              		.cfi_endproc
 229              	.LFE71:
 231              		.align	1
 232 002a 00BF     		.p2align 2,,3
 233              		.global	RTC_IRQHandler
 234              		.syntax unified
 235              		.thumb
 236              		.thumb_func
 238              	RTC_IRQHandler:
 239              	.LFB73:
 240              		.cfi_startproc
 241              		@ args = 0, pretend = 0, frame = 0
 242              		@ frame_needed = 0, uses_anonymous_args = 0
 243              		@ link register save eliminated.
 244 002c 7047     		bx	lr
 245              		.cfi_endproc
 246              	.LFE73:
 248              		.align	1
 249 002e 00BF     		.p2align 2,,3
 250              		.global	FLASH_IRQHandler
 251              		.syntax unified
 252              		.thumb
 253              		.thumb_func
 255              	FLASH_IRQHandler:
 256              	.LFB75:
 257              		.cfi_startproc
 258              		@ args = 0, pretend = 0, frame = 0
 259              		@ frame_needed = 0, uses_anonymous_args = 0
 260              		@ link register save eliminated.
 261 0030 7047     		bx	lr
 262              		.cfi_endproc
 263              	.LFE75:
 265              		.align	1
 266 0032 00BF     		.p2align 2,,3
 267              		.global	RCC_IRQHandler
 268              		.syntax unified
 269              		.thumb
 270              		.thumb_func
 272              	RCC_IRQHandler:
 273              	.LFB77:
 274              		.cfi_startproc
 275              		@ args = 0, pretend = 0, frame = 0
 276              		@ frame_needed = 0, uses_anonymous_args = 0
 277              		@ link register save eliminated.
 278 0034 7047     		bx	lr
 279              		.cfi_endproc
 280              	.LFE77:
 282              		.align	1
 283 0036 00BF     		.p2align 2,,3
 284              		.global	EXTI0_IRQHandler
 285              		.syntax unified
 286              		.thumb
 287              		.thumb_func
 289              	EXTI0_IRQHandler:
 290              	.LFB79:
 291              		.cfi_startproc
 292              		@ args = 0, pretend = 0, frame = 0
 293              		@ frame_needed = 0, uses_anonymous_args = 0
 294              		@ link register save eliminated.
 295 0038 7047     		bx	lr
 296              		.cfi_endproc
 297              	.LFE79:
 299              		.align	1
 300 003a 00BF     		.p2align 2,,3
 301              		.global	EXTI1_IRQHandler
 302              		.syntax unified
 303              		.thumb
 304              		.thumb_func
 306              	EXTI1_IRQHandler:
 307              	.LFB81:
 308              		.cfi_startproc
 309              		@ args = 0, pretend = 0, frame = 0
 310              		@ frame_needed = 0, uses_anonymous_args = 0
 311              		@ link register save eliminated.
 312 003c 7047     		bx	lr
 313              		.cfi_endproc
 314              	.LFE81:
 316              		.align	1
 317 003e 00BF     		.p2align 2,,3
 318              		.global	EXTI3_IRQHandler
 319              		.syntax unified
 320              		.thumb
 321              		.thumb_func
 323              	EXTI3_IRQHandler:
 324              	.LFB83:
 325              		.cfi_startproc
 326              		@ args = 0, pretend = 0, frame = 0
 327              		@ frame_needed = 0, uses_anonymous_args = 0
 328              		@ link register save eliminated.
 329 0040 7047     		bx	lr
 330              		.cfi_endproc
 331              	.LFE83:
 333              		.align	1
 334 0042 00BF     		.p2align 2,,3
 335              		.global	EXTI4_IRQHandler
 336              		.syntax unified
 337              		.thumb
 338              		.thumb_func
 340              	EXTI4_IRQHandler:
 341              	.LFB85:
 342              		.cfi_startproc
 343              		@ args = 0, pretend = 0, frame = 0
 344              		@ frame_needed = 0, uses_anonymous_args = 0
 345              		@ link register save eliminated.
 346 0044 7047     		bx	lr
 347              		.cfi_endproc
 348              	.LFE85:
 350              		.align	1
 351 0046 00BF     		.p2align 2,,3
 352              		.global	DMA1_Channel1_IRQHandler
 353              		.syntax unified
 354              		.thumb
 355              		.thumb_func
 357              	DMA1_Channel1_IRQHandler:
 358              	.LFB87:
 359              		.cfi_startproc
 360              		@ args = 0, pretend = 0, frame = 0
 361              		@ frame_needed = 0, uses_anonymous_args = 0
 362              		@ link register save eliminated.
 363 0048 7047     		bx	lr
 364              		.cfi_endproc
 365              	.LFE87:
 367              		.align	1
 368 004a 00BF     		.p2align 2,,3
 369              		.global	DMA1_Channel2_IRQHandler
 370              		.syntax unified
 371              		.thumb
 372              		.thumb_func
 374              	DMA1_Channel2_IRQHandler:
 375              	.LFB89:
 376              		.cfi_startproc
 377              		@ args = 0, pretend = 0, frame = 0
 378              		@ frame_needed = 0, uses_anonymous_args = 0
 379              		@ link register save eliminated.
 380 004c 7047     		bx	lr
 381              		.cfi_endproc
 382              	.LFE89:
 384              		.align	1
 385 004e 00BF     		.p2align 2,,3
 386              		.global	DMA1_Channel3_IRQHandler
 387              		.syntax unified
 388              		.thumb
 389              		.thumb_func
 391              	DMA1_Channel3_IRQHandler:
 392              	.LFB91:
 393              		.cfi_startproc
 394              		@ args = 0, pretend = 0, frame = 0
 395              		@ frame_needed = 0, uses_anonymous_args = 0
 396              		@ link register save eliminated.
 397 0050 7047     		bx	lr
 398              		.cfi_endproc
 399              	.LFE91:
 401              		.align	1
 402 0052 00BF     		.p2align 2,,3
 403              		.global	DMA1_Channel4_IRQHandler
 404              		.syntax unified
 405              		.thumb
 406              		.thumb_func
 408              	DMA1_Channel4_IRQHandler:
 409              	.LFB93:
 410              		.cfi_startproc
 411              		@ args = 0, pretend = 0, frame = 0
 412              		@ frame_needed = 0, uses_anonymous_args = 0
 413              		@ link register save eliminated.
 414 0054 7047     		bx	lr
 415              		.cfi_endproc
 416              	.LFE93:
 418              		.align	1
 419 0056 00BF     		.p2align 2,,3
 420              		.global	DMA1_Channel5_IRQHandler
 421              		.syntax unified
 422              		.thumb
 423              		.thumb_func
 425              	DMA1_Channel5_IRQHandler:
 426              	.LFB95:
 427              		.cfi_startproc
 428              		@ args = 0, pretend = 0, frame = 0
 429              		@ frame_needed = 0, uses_anonymous_args = 0
 430              		@ link register save eliminated.
 431 0058 7047     		bx	lr
 432              		.cfi_endproc
 433              	.LFE95:
 435              		.align	1
 436 005a 00BF     		.p2align 2,,3
 437              		.global	DMA1_Channel6_IRQHandler
 438              		.syntax unified
 439              		.thumb
 440              		.thumb_func
 442              	DMA1_Channel6_IRQHandler:
 443              	.LFB97:
 444              		.cfi_startproc
 445              		@ args = 0, pretend = 0, frame = 0
 446              		@ frame_needed = 0, uses_anonymous_args = 0
 447              		@ link register save eliminated.
 448 005c 7047     		bx	lr
 449              		.cfi_endproc
 450              	.LFE97:
 452              		.align	1
 453 005e 00BF     		.p2align 2,,3
 454              		.global	DMA1_Channel7_IRQHandler
 455              		.syntax unified
 456              		.thumb
 457              		.thumb_func
 459              	DMA1_Channel7_IRQHandler:
 460              	.LFB99:
 461              		.cfi_startproc
 462              		@ args = 0, pretend = 0, frame = 0
 463              		@ frame_needed = 0, uses_anonymous_args = 0
 464              		@ link register save eliminated.
 465 0060 7047     		bx	lr
 466              		.cfi_endproc
 467              	.LFE99:
 469              		.align	1
 470 0062 00BF     		.p2align 2,,3
 471              		.global	ADC_IRQHandler
 472              		.syntax unified
 473              		.thumb
 474              		.thumb_func
 476              	ADC_IRQHandler:
 477              	.LFB141:
 478              		.cfi_startproc
 479              		@ args = 0, pretend = 0, frame = 0
 480              		@ frame_needed = 0, uses_anonymous_args = 0
 481              		@ link register save eliminated.
 482 0064 7047     		bx	lr
 483              		.cfi_endproc
 484              	.LFE141:
 486              		.align	1
 487 0066 00BF     		.p2align 2,,3
 488              		.global	USB_HP_CAN_TX_IRQHandler
 489              		.syntax unified
 490              		.thumb
 491              		.thumb_func
 493              	USB_HP_CAN_TX_IRQHandler:
 494              	.LFB26:
 116:cpu/STM32F103/stm32f10x_it.c **** }
 117:cpu/STM32F103/stm32f10x_it.c **** 
 118:cpu/STM32F103/stm32f10x_it.c **** /*******************************************************************************
 119:cpu/STM32F103/stm32f10x_it.c **** * Function Name  : DebugMonitor
 120:cpu/STM32F103/stm32f10x_it.c **** * Description    : This function handles Debug Monitor exception.
 121:cpu/STM32F103/stm32f10x_it.c **** * Input          : None
 122:cpu/STM32F103/stm32f10x_it.c **** * Output         : None
 123:cpu/STM32F103/stm32f10x_it.c **** * Return         : None
 124:cpu/STM32F103/stm32f10x_it.c **** *******************************************************************************/
 125:cpu/STM32F103/stm32f10x_it.c **** void DebugMonitor(void)
 126:cpu/STM32F103/stm32f10x_it.c **** {
 127:cpu/STM32F103/stm32f10x_it.c **** }
 128:cpu/STM32F103/stm32f10x_it.c **** 
 129:cpu/STM32F103/stm32f10x_it.c **** /*******************************************************************************
 130:cpu/STM32F103/stm32f10x_it.c **** * Function Name  : SVCHandler
 131:cpu/STM32F103/stm32f10x_it.c **** * Description    : This function handles SVCall exception.
 132:cpu/STM32F103/stm32f10x_it.c **** * Input          : None
 133:cpu/STM32F103/stm32f10x_it.c **** * Output         : None
 134:cpu/STM32F103/stm32f10x_it.c **** * Return         : None
 135:cpu/STM32F103/stm32f10x_it.c **** *******************************************************************************/
 136:cpu/STM32F103/stm32f10x_it.c **** void SVCHandler(void)
 137:cpu/STM32F103/stm32f10x_it.c **** {
 138:cpu/STM32F103/stm32f10x_it.c **** }
 139:cpu/STM32F103/stm32f10x_it.c **** 
 140:cpu/STM32F103/stm32f10x_it.c **** /*******************************************************************************
 141:cpu/STM32F103/stm32f10x_it.c **** * Function Name  : PendSVC
 142:cpu/STM32F103/stm32f10x_it.c **** * Description    : This function handles PendSVC exception.
 143:cpu/STM32F103/stm32f10x_it.c **** * Input          : None
 144:cpu/STM32F103/stm32f10x_it.c **** * Output         : None
 145:cpu/STM32F103/stm32f10x_it.c **** * Return         : None
 146:cpu/STM32F103/stm32f10x_it.c **** *******************************************************************************/
 147:cpu/STM32F103/stm32f10x_it.c **** void PendSVC(void)
 148:cpu/STM32F103/stm32f10x_it.c **** {
 149:cpu/STM32F103/stm32f10x_it.c **** }
 150:cpu/STM32F103/stm32f10x_it.c **** 
 151:cpu/STM32F103/stm32f10x_it.c **** /*******************************************************************************
 152:cpu/STM32F103/stm32f10x_it.c **** * Function Name  : WWDG_IRQHandler
 153:cpu/STM32F103/stm32f10x_it.c **** * Description    : This function handles WWDG interrupt request.
 154:cpu/STM32F103/stm32f10x_it.c **** * Input          : None
 155:cpu/STM32F103/stm32f10x_it.c **** * Output         : None
 156:cpu/STM32F103/stm32f10x_it.c **** * Return         : None
 157:cpu/STM32F103/stm32f10x_it.c **** *******************************************************************************/
 158:cpu/STM32F103/stm32f10x_it.c **** void WWDG_IRQHandler(void)
 159:cpu/STM32F103/stm32f10x_it.c **** {
 160:cpu/STM32F103/stm32f10x_it.c **** }
 161:cpu/STM32F103/stm32f10x_it.c **** 
 162:cpu/STM32F103/stm32f10x_it.c **** /*******************************************************************************
 163:cpu/STM32F103/stm32f10x_it.c **** * Function Name  : PVD_IRQHandler
 164:cpu/STM32F103/stm32f10x_it.c **** * Description    : This function handles PVD interrupt request.
 165:cpu/STM32F103/stm32f10x_it.c **** * Input          : None
 166:cpu/STM32F103/stm32f10x_it.c **** * Output         : None
 167:cpu/STM32F103/stm32f10x_it.c **** * Return         : None
 168:cpu/STM32F103/stm32f10x_it.c **** *******************************************************************************/
 169:cpu/STM32F103/stm32f10x_it.c **** void PVD_IRQHandler(void)
 170:cpu/STM32F103/stm32f10x_it.c **** {
 171:cpu/STM32F103/stm32f10x_it.c **** }
 172:cpu/STM32F103/stm32f10x_it.c **** 
 173:cpu/STM32F103/stm32f10x_it.c **** /*******************************************************************************
 174:cpu/STM32F103/stm32f10x_it.c **** * Function Name  : TAMPER_IRQHandler
 175:cpu/STM32F103/stm32f10x_it.c **** * Description    : This function handles Tamper interrupt request.
 176:cpu/STM32F103/stm32f10x_it.c **** * Input          : None
 177:cpu/STM32F103/stm32f10x_it.c **** * Output         : None
 178:cpu/STM32F103/stm32f10x_it.c **** * Return         : None
 179:cpu/STM32F103/stm32f10x_it.c **** *******************************************************************************/
 180:cpu/STM32F103/stm32f10x_it.c **** void TAMPER_IRQHandler(void)
 181:cpu/STM32F103/stm32f10x_it.c **** {
 182:cpu/STM32F103/stm32f10x_it.c **** }
 183:cpu/STM32F103/stm32f10x_it.c **** 
 184:cpu/STM32F103/stm32f10x_it.c **** /*******************************************************************************
 185:cpu/STM32F103/stm32f10x_it.c **** * Function Name  : RTC_IRQHandler
 186:cpu/STM32F103/stm32f10x_it.c **** * Description    : This function handles RTC global interrupt request.
 187:cpu/STM32F103/stm32f10x_it.c **** * Input          : None
 188:cpu/STM32F103/stm32f10x_it.c **** * Output         : None
 189:cpu/STM32F103/stm32f10x_it.c **** * Return         : None
 190:cpu/STM32F103/stm32f10x_it.c **** *******************************************************************************/
 191:cpu/STM32F103/stm32f10x_it.c **** void RTC_IRQHandler(void)
 192:cpu/STM32F103/stm32f10x_it.c **** {
 193:cpu/STM32F103/stm32f10x_it.c **** }
 194:cpu/STM32F103/stm32f10x_it.c **** 
 195:cpu/STM32F103/stm32f10x_it.c **** /*******************************************************************************
 196:cpu/STM32F103/stm32f10x_it.c **** * Function Name  : FLASH_IRQHandler
 197:cpu/STM32F103/stm32f10x_it.c **** * Description    : This function handles Flash interrupt request.
 198:cpu/STM32F103/stm32f10x_it.c **** * Input          : None
 199:cpu/STM32F103/stm32f10x_it.c **** * Output         : None
 200:cpu/STM32F103/stm32f10x_it.c **** * Return         : None
 201:cpu/STM32F103/stm32f10x_it.c **** *******************************************************************************/
 202:cpu/STM32F103/stm32f10x_it.c **** void FLASH_IRQHandler(void)
 203:cpu/STM32F103/stm32f10x_it.c **** {
 204:cpu/STM32F103/stm32f10x_it.c **** }
 205:cpu/STM32F103/stm32f10x_it.c **** 
 206:cpu/STM32F103/stm32f10x_it.c **** /*******************************************************************************
 207:cpu/STM32F103/stm32f10x_it.c **** * Function Name  : RCC_IRQHandler
 208:cpu/STM32F103/stm32f10x_it.c **** * Description    : This function handles RCC interrupt request.
 209:cpu/STM32F103/stm32f10x_it.c **** * Input          : None
 210:cpu/STM32F103/stm32f10x_it.c **** * Output         : None
 211:cpu/STM32F103/stm32f10x_it.c **** * Return         : None
 212:cpu/STM32F103/stm32f10x_it.c **** *******************************************************************************/
 213:cpu/STM32F103/stm32f10x_it.c **** void RCC_IRQHandler(void)
 214:cpu/STM32F103/stm32f10x_it.c **** {
 215:cpu/STM32F103/stm32f10x_it.c **** }
 216:cpu/STM32F103/stm32f10x_it.c **** 
 217:cpu/STM32F103/stm32f10x_it.c **** /*******************************************************************************
 218:cpu/STM32F103/stm32f10x_it.c **** * Function Name  : EXTI0_IRQHandler
 219:cpu/STM32F103/stm32f10x_it.c **** * Description    : This function handles External interrupt Line 0 request.
 220:cpu/STM32F103/stm32f10x_it.c **** * Input          : None
 221:cpu/STM32F103/stm32f10x_it.c **** * Output         : None
 222:cpu/STM32F103/stm32f10x_it.c **** * Return         : None
 223:cpu/STM32F103/stm32f10x_it.c **** *******************************************************************************/
 224:cpu/STM32F103/stm32f10x_it.c **** void EXTI0_IRQHandler(void)
 225:cpu/STM32F103/stm32f10x_it.c **** {
 226:cpu/STM32F103/stm32f10x_it.c **** }
 227:cpu/STM32F103/stm32f10x_it.c **** 
 228:cpu/STM32F103/stm32f10x_it.c **** /*******************************************************************************
 229:cpu/STM32F103/stm32f10x_it.c **** * Function Name  : EXTI1_IRQHandler
 230:cpu/STM32F103/stm32f10x_it.c **** * Description    : This function handles External interrupt Line 1 request.
 231:cpu/STM32F103/stm32f10x_it.c **** * Input          : None
 232:cpu/STM32F103/stm32f10x_it.c **** * Output         : None
 233:cpu/STM32F103/stm32f10x_it.c **** * Return         : None
 234:cpu/STM32F103/stm32f10x_it.c **** *******************************************************************************/
 235:cpu/STM32F103/stm32f10x_it.c **** void EXTI1_IRQHandler(void)
 236:cpu/STM32F103/stm32f10x_it.c **** {
 237:cpu/STM32F103/stm32f10x_it.c **** }
 238:cpu/STM32F103/stm32f10x_it.c **** 
 239:cpu/STM32F103/stm32f10x_it.c **** /*******************************************************************************
 240:cpu/STM32F103/stm32f10x_it.c **** * Function Name  : EXTI2_IRQHandler
 241:cpu/STM32F103/stm32f10x_it.c **** * Description    : This function handles External interrupt Line 2 request.
 242:cpu/STM32F103/stm32f10x_it.c **** * Input          : None
 243:cpu/STM32F103/stm32f10x_it.c **** * Output         : None
 244:cpu/STM32F103/stm32f10x_it.c **** * Return         : None
 245:cpu/STM32F103/stm32f10x_it.c **** *******************************************************************************/
 246:cpu/STM32F103/stm32f10x_it.c **** //void EXTI2_IRQHandler(void)
 247:cpu/STM32F103/stm32f10x_it.c **** //{
 248:cpu/STM32F103/stm32f10x_it.c **** //}
 249:cpu/STM32F103/stm32f10x_it.c **** 
 250:cpu/STM32F103/stm32f10x_it.c **** /*******************************************************************************
 251:cpu/STM32F103/stm32f10x_it.c **** * Function Name  : EXTI3_IRQHandler
 252:cpu/STM32F103/stm32f10x_it.c **** * Description    : This function handles External interrupt Line 3 request.
 253:cpu/STM32F103/stm32f10x_it.c **** * Input          : None
 254:cpu/STM32F103/stm32f10x_it.c **** * Output         : None
 255:cpu/STM32F103/stm32f10x_it.c **** * Return         : None
 256:cpu/STM32F103/stm32f10x_it.c **** *******************************************************************************/
 257:cpu/STM32F103/stm32f10x_it.c **** void EXTI3_IRQHandler(void)
 258:cpu/STM32F103/stm32f10x_it.c **** {
 259:cpu/STM32F103/stm32f10x_it.c **** }
 260:cpu/STM32F103/stm32f10x_it.c **** 
 261:cpu/STM32F103/stm32f10x_it.c **** /*******************************************************************************
 262:cpu/STM32F103/stm32f10x_it.c **** * Function Name  : EXTI4_IRQHandler
 263:cpu/STM32F103/stm32f10x_it.c **** * Description    : This function handles External interrupt Line 4 request.
 264:cpu/STM32F103/stm32f10x_it.c **** * Input          : None
 265:cpu/STM32F103/stm32f10x_it.c **** * Output         : None
 266:cpu/STM32F103/stm32f10x_it.c **** * Return         : None
 267:cpu/STM32F103/stm32f10x_it.c **** *******************************************************************************/
 268:cpu/STM32F103/stm32f10x_it.c **** void EXTI4_IRQHandler(void)
 269:cpu/STM32F103/stm32f10x_it.c **** {
 270:cpu/STM32F103/stm32f10x_it.c **** }
 271:cpu/STM32F103/stm32f10x_it.c **** 
 272:cpu/STM32F103/stm32f10x_it.c **** /*******************************************************************************
 273:cpu/STM32F103/stm32f10x_it.c **** * Function Name  : DMA1_Channel1_IRQHandler
 274:cpu/STM32F103/stm32f10x_it.c **** * Description    : This function handles DMA1 Channel 1 interrupt request.
 275:cpu/STM32F103/stm32f10x_it.c **** * Input          : None
 276:cpu/STM32F103/stm32f10x_it.c **** * Output         : None
 277:cpu/STM32F103/stm32f10x_it.c **** * Return         : None
 278:cpu/STM32F103/stm32f10x_it.c **** *******************************************************************************/
 279:cpu/STM32F103/stm32f10x_it.c **** void DMA1_Channel1_IRQHandler(void)
 280:cpu/STM32F103/stm32f10x_it.c **** {
 281:cpu/STM32F103/stm32f10x_it.c **** }
 282:cpu/STM32F103/stm32f10x_it.c **** 
 283:cpu/STM32F103/stm32f10x_it.c **** /*******************************************************************************
 284:cpu/STM32F103/stm32f10x_it.c **** * Function Name  : DMA1_Channel2_IRQHandler
 285:cpu/STM32F103/stm32f10x_it.c **** * Description    : This function handles DMA1 Channel 2 interrupt request.
 286:cpu/STM32F103/stm32f10x_it.c **** * Input          : None
 287:cpu/STM32F103/stm32f10x_it.c **** * Output         : None
 288:cpu/STM32F103/stm32f10x_it.c **** * Return         : None
 289:cpu/STM32F103/stm32f10x_it.c **** *******************************************************************************/
 290:cpu/STM32F103/stm32f10x_it.c **** void DMA1_Channel2_IRQHandler(void)
 291:cpu/STM32F103/stm32f10x_it.c **** {
 292:cpu/STM32F103/stm32f10x_it.c **** }
 293:cpu/STM32F103/stm32f10x_it.c **** 
 294:cpu/STM32F103/stm32f10x_it.c **** /*******************************************************************************
 295:cpu/STM32F103/stm32f10x_it.c **** * Function Name  : DMA1_Channel3_IRQHandler
 296:cpu/STM32F103/stm32f10x_it.c **** * Description    : This function handles DMA1 Channel 3 interrupt request.
 297:cpu/STM32F103/stm32f10x_it.c **** * Input          : None
 298:cpu/STM32F103/stm32f10x_it.c **** * Output         : None
 299:cpu/STM32F103/stm32f10x_it.c **** * Return         : None
 300:cpu/STM32F103/stm32f10x_it.c **** *******************************************************************************/
 301:cpu/STM32F103/stm32f10x_it.c **** void DMA1_Channel3_IRQHandler(void)
 302:cpu/STM32F103/stm32f10x_it.c **** {
 303:cpu/STM32F103/stm32f10x_it.c **** }
 304:cpu/STM32F103/stm32f10x_it.c **** 
 305:cpu/STM32F103/stm32f10x_it.c **** /*******************************************************************************
 306:cpu/STM32F103/stm32f10x_it.c **** * Function Name  : DMA1_Channel4_IRQHandler
 307:cpu/STM32F103/stm32f10x_it.c **** * Description    : This function handles DMA1 Channel 4 interrupt request.
 308:cpu/STM32F103/stm32f10x_it.c **** * Input          : None
 309:cpu/STM32F103/stm32f10x_it.c **** * Output         : None
 310:cpu/STM32F103/stm32f10x_it.c **** * Return         : None
 311:cpu/STM32F103/stm32f10x_it.c **** *******************************************************************************/
 312:cpu/STM32F103/stm32f10x_it.c **** void DMA1_Channel4_IRQHandler(void)
 313:cpu/STM32F103/stm32f10x_it.c **** {
 314:cpu/STM32F103/stm32f10x_it.c **** }
 315:cpu/STM32F103/stm32f10x_it.c **** 
 316:cpu/STM32F103/stm32f10x_it.c **** /*******************************************************************************
 317:cpu/STM32F103/stm32f10x_it.c **** * Function Name  : DMA1_Channel5_IRQHandler
 318:cpu/STM32F103/stm32f10x_it.c **** * Description    : This function handles DMA1 Channel 5 interrupt request.
 319:cpu/STM32F103/stm32f10x_it.c **** * Input          : None
 320:cpu/STM32F103/stm32f10x_it.c **** * Output         : None
 321:cpu/STM32F103/stm32f10x_it.c **** * Return         : None
 322:cpu/STM32F103/stm32f10x_it.c **** *******************************************************************************/
 323:cpu/STM32F103/stm32f10x_it.c **** void DMA1_Channel5_IRQHandler(void)
 324:cpu/STM32F103/stm32f10x_it.c **** {
 325:cpu/STM32F103/stm32f10x_it.c **** }
 326:cpu/STM32F103/stm32f10x_it.c **** 
 327:cpu/STM32F103/stm32f10x_it.c **** /*******************************************************************************
 328:cpu/STM32F103/stm32f10x_it.c **** * Function Name  : DMA1_Channel6_IRQHandler
 329:cpu/STM32F103/stm32f10x_it.c **** * Description    : This function handles DMA1 Channel 6 interrupt request.
 330:cpu/STM32F103/stm32f10x_it.c **** * Input          : None
 331:cpu/STM32F103/stm32f10x_it.c **** * Output         : None
 332:cpu/STM32F103/stm32f10x_it.c **** * Return         : None
 333:cpu/STM32F103/stm32f10x_it.c **** *******************************************************************************/
 334:cpu/STM32F103/stm32f10x_it.c **** void DMA1_Channel6_IRQHandler(void)
 335:cpu/STM32F103/stm32f10x_it.c **** {
 336:cpu/STM32F103/stm32f10x_it.c **** }
 337:cpu/STM32F103/stm32f10x_it.c **** 
 338:cpu/STM32F103/stm32f10x_it.c **** /*******************************************************************************
 339:cpu/STM32F103/stm32f10x_it.c **** * Function Name  : DMA1_Channel7_IRQHandler
 340:cpu/STM32F103/stm32f10x_it.c **** * Description    : This function handles DMA1 Channel 7 interrupt request.
 341:cpu/STM32F103/stm32f10x_it.c **** * Input          : None
 342:cpu/STM32F103/stm32f10x_it.c **** * Output         : None
 343:cpu/STM32F103/stm32f10x_it.c **** * Return         : None
 344:cpu/STM32F103/stm32f10x_it.c **** *******************************************************************************/
 345:cpu/STM32F103/stm32f10x_it.c **** void DMA1_Channel7_IRQHandler(void)
 346:cpu/STM32F103/stm32f10x_it.c **** {
 347:cpu/STM32F103/stm32f10x_it.c **** }
 348:cpu/STM32F103/stm32f10x_it.c **** 
 349:cpu/STM32F103/stm32f10x_it.c **** /*******************************************************************************
 350:cpu/STM32F103/stm32f10x_it.c **** * Function Name  : ADC1_2_IRQHandler
 351:cpu/STM32F103/stm32f10x_it.c **** * Description    : This function handles ADC1 and ADC2 global interrupts requests.
 352:cpu/STM32F103/stm32f10x_it.c **** * Input          : None
 353:cpu/STM32F103/stm32f10x_it.c **** * Output         : None
 354:cpu/STM32F103/stm32f10x_it.c **** * Return         : None
 355:cpu/STM32F103/stm32f10x_it.c **** *******************************************************************************/
 356:cpu/STM32F103/stm32f10x_it.c **** //void ADC1_2_IRQHandler(void)   //*****OK The name in the linker script is "ADC_IRQHandler"!!!!!!!
 357:cpu/STM32F103/stm32f10x_it.c **** void ADC_IRQHandler(void)
 358:cpu/STM32F103/stm32f10x_it.c **** {
 359:cpu/STM32F103/stm32f10x_it.c **** }
 360:cpu/STM32F103/stm32f10x_it.c **** 
 361:cpu/STM32F103/stm32f10x_it.c **** /*******************************************************************************
 362:cpu/STM32F103/stm32f10x_it.c **** * Function Name  : USB_HP_CAN_TX_IRQHandler
 363:cpu/STM32F103/stm32f10x_it.c **** * Description    : This function handles USB High Priority or CAN TX interrupts
 364:cpu/STM32F103/stm32f10x_it.c **** *                  requests.
 365:cpu/STM32F103/stm32f10x_it.c **** * Input          : None
 366:cpu/STM32F103/stm32f10x_it.c **** * Output         : None
 367:cpu/STM32F103/stm32f10x_it.c **** * Return         : None
 368:cpu/STM32F103/stm32f10x_it.c **** *******************************************************************************/
 369:cpu/STM32F103/stm32f10x_it.c **** void USB_HP_CAN_TX_IRQHandler(void)
 370:cpu/STM32F103/stm32f10x_it.c **** {
 495              		.loc 1 370 1 view -0
 496              		.cfi_startproc
 497              		@ args = 0, pretend = 0, frame = 0
 498              		@ frame_needed = 0, uses_anonymous_args = 0
 499              		@ link register save eliminated.
 371:cpu/STM32F103/stm32f10x_it.c ****   (*CanTxUsbHpIrqVector)();
 500              		.loc 1 371 3 view .LVU19
 501              		.loc 1 371 4 is_stmt 0 view .LVU20
 502 0068 014B     		ldr	r3, .L33
 503 006a 1B68     		ldr	r3, [r3]
 504 006c 1847     		bx	r3	@ indirect register sibling call
 505              	.LVL0:
 506              	.L34:
 507 006e 00BF     		.align	2
 508              	.L33:
 509 0070 00000000 		.word	CanTxUsbHpIrqVector
 510              		.cfi_endproc
 511              	.LFE26:
 513              		.align	1
 514              		.p2align 2,,3
 515              		.global	USB_LP_CAN_RX0_IRQHandler
 516              		.syntax unified
 517              		.thumb
 518              		.thumb_func
 520              	USB_LP_CAN_RX0_IRQHandler:
 521              	.LFB27:
 372:cpu/STM32F103/stm32f10x_it.c **** }
 373:cpu/STM32F103/stm32f10x_it.c **** 
 374:cpu/STM32F103/stm32f10x_it.c **** /*******************************************************************************
 375:cpu/STM32F103/stm32f10x_it.c **** * Function Name  : USB_LP_CAN_RX0_IRQHandler
 376:cpu/STM32F103/stm32f10x_it.c **** * Description    : This function handles USB Low Priority or CAN RX0 interrupts
 377:cpu/STM32F103/stm32f10x_it.c **** *                  requests.
 378:cpu/STM32F103/stm32f10x_it.c **** * Input          : None
 379:cpu/STM32F103/stm32f10x_it.c **** * Output         : None
 380:cpu/STM32F103/stm32f10x_it.c **** * Return         : None
 381:cpu/STM32F103/stm32f10x_it.c **** *******************************************************************************/
 382:cpu/STM32F103/stm32f10x_it.c **** void USB_LP_CAN_RX0_IRQHandler(void)
 383:cpu/STM32F103/stm32f10x_it.c **** {
 522              		.loc 1 383 1 is_stmt 1 view -0
 523              		.cfi_startproc
 524              		@ args = 0, pretend = 0, frame = 0
 525              		@ frame_needed = 0, uses_anonymous_args = 0
 526              		@ link register save eliminated.
 384:cpu/STM32F103/stm32f10x_it.c ****   (*CanRx0UsbLpIrqVector)();
 527              		.loc 1 384 3 view .LVU22
 528              		.loc 1 384 4 is_stmt 0 view .LVU23
 529 0074 014B     		ldr	r3, .L36
 530 0076 1B68     		ldr	r3, [r3]
 531 0078 1847     		bx	r3	@ indirect register sibling call
 532              	.LVL1:
 533              	.L37:
 534 007a 00BF     		.align	2
 535              	.L36:
 536 007c 00000000 		.word	CanRx0UsbLpIrqVector
 537              		.cfi_endproc
 538              	.LFE27:
 540              		.align	1
 541              		.p2align 2,,3
 542              		.global	CAN_RX1_IRQHandler
 543              		.syntax unified
 544              		.thumb
 545              		.thumb_func
 547              	CAN_RX1_IRQHandler:
 548              	.LFB28:
 385:cpu/STM32F103/stm32f10x_it.c **** }
 386:cpu/STM32F103/stm32f10x_it.c **** 
 387:cpu/STM32F103/stm32f10x_it.c **** /*******************************************************************************
 388:cpu/STM32F103/stm32f10x_it.c **** * Function Name  : CAN_RX1_IRQHandler
 389:cpu/STM32F103/stm32f10x_it.c **** * Description    : This function handles CAN RX1 interrupt request.
 390:cpu/STM32F103/stm32f10x_it.c **** * Input          : None
 391:cpu/STM32F103/stm32f10x_it.c **** * Output         : None
 392:cpu/STM32F103/stm32f10x_it.c **** * Return         : None
 393:cpu/STM32F103/stm32f10x_it.c **** *******************************************************************************/
 394:cpu/STM32F103/stm32f10x_it.c **** void __attribute__ ((interrupt)) CAN_RX1_IRQHandler(void)
 395:cpu/STM32F103/stm32f10x_it.c **** {
 549              		.loc 1 395 1 is_stmt 1 view -0
 550              		.cfi_startproc
 551              		@ Stack Align: May be called with mis-aligned SP.
 552              		@ args = 0, pretend = 0, frame = 0
 553              		@ frame_needed = 0, uses_anonymous_args = 0
 396:cpu/STM32F103/stm32f10x_it.c ****   (*CanRx1IrqVector)();
 554              		.loc 1 396 3 view .LVU25
 395:cpu/STM32F103/stm32f10x_it.c ****   (*CanRx1IrqVector)();
 555              		.loc 1 395 1 is_stmt 0 view .LVU26
 556 0080 6846     		mov	r0, sp
 557              		.cfi_register 13, 0
 558 0082 20F00701 		bic	r1, r0, #7
 559 0086 8D46     		mov	sp, r1
 560 0088 01B5     		push	{r0, lr}
 561              	.LCFI0:
 562              		.cfi_def_cfa_offset 8
 563              		.cfi_offset 13, -8
 564              		.cfi_offset 14, -4
 565              		.loc 1 396 4 view .LVU27
 566 008a 034B     		ldr	r3, .L39
 567 008c 1B68     		ldr	r3, [r3]
 568 008e 9847     		blx	r3
 569              	.LVL2:
 397:cpu/STM32F103/stm32f10x_it.c **** }
 570              		.loc 1 397 1 view .LVU28
 571 0090 BDE80140 		pop	{r0, lr}
 572              	.LCFI1:
 573              		.cfi_restore 14
 574              		.cfi_restore 0
 575              		.cfi_def_cfa_offset 0
 576 0094 8546     		mov	sp, r0
 577 0096 7047     		bx	lr
 578              	.L40:
 579              		.align	2
 580              	.L39:
 581 0098 00000000 		.word	CanRx1IrqVector
 582              		.cfi_endproc
 583              	.LFE28:
 585              		.align	1
 586              		.p2align 2,,3
 587              		.global	CAN_SCE_IRQHandler
 588              		.syntax unified
 589              		.thumb
 590              		.thumb_func
 592              	CAN_SCE_IRQHandler:
 593              	.LFB29:
 398:cpu/STM32F103/stm32f10x_it.c **** 
 399:cpu/STM32F103/stm32f10x_it.c **** /*******************************************************************************
 400:cpu/STM32F103/stm32f10x_it.c **** * Function Name  : CAN_SCE_IRQHandler
 401:cpu/STM32F103/stm32f10x_it.c **** * Description    : This function handles CAN SCE interrupt request.
 402:cpu/STM32F103/stm32f10x_it.c **** * Input          : None
 403:cpu/STM32F103/stm32f10x_it.c **** * Output         : None
 404:cpu/STM32F103/stm32f10x_it.c **** * Return         : None
 405:cpu/STM32F103/stm32f10x_it.c **** *******************************************************************************/
 406:cpu/STM32F103/stm32f10x_it.c **** void CAN_SCE_IRQHandler(void)
 407:cpu/STM32F103/stm32f10x_it.c **** {
 594              		.loc 1 407 1 is_stmt 1 view -0
 595              		.cfi_startproc
 596              		@ args = 0, pretend = 0, frame = 0
 597              		@ frame_needed = 0, uses_anonymous_args = 0
 598              		@ link register save eliminated.
 408:cpu/STM32F103/stm32f10x_it.c **** 	(*CanSceIrqVector)();
 599              		.loc 1 408 2 view .LVU30
 600              		.loc 1 408 3 is_stmt 0 view .LVU31
 601 009c 014B     		ldr	r3, .L42
 602 009e 1B68     		ldr	r3, [r3]
 603 00a0 1847     		bx	r3	@ indirect register sibling call
 604              	.LVL3:
 605              	.L43:
 606 00a2 00BF     		.align	2
 607              	.L42:
 608 00a4 00000000 		.word	CanSceIrqVector
 609              		.cfi_endproc
 610              	.LFE29:
 612              		.align	1
 613              		.p2align 2,,3
 614              		.global	TIM1_BRK_IRQHandler
 615              		.syntax unified
 616              		.thumb
 617              		.thumb_func
 619              	TIM1_BRK_IRQHandler:
 620              	.LFB101:
 621              		.cfi_startproc
 622              		@ args = 0, pretend = 0, frame = 0
 623              		@ frame_needed = 0, uses_anonymous_args = 0
 624              		@ link register save eliminated.
 625 00a8 7047     		bx	lr
 626              		.cfi_endproc
 627              	.LFE101:
 629              		.align	1
 630 00aa 00BF     		.p2align 2,,3
 631              		.weak	I2C1_EV_IRQHandler
 632              		.syntax unified
 633              		.thumb
 634              		.thumb_func
 636              	I2C1_EV_IRQHandler:
 637              	.LFB31:
 409:cpu/STM32F103/stm32f10x_it.c **** }
 410:cpu/STM32F103/stm32f10x_it.c **** 
 411:cpu/STM32F103/stm32f10x_it.c **** /*******************************************************************************
 412:cpu/STM32F103/stm32f10x_it.c **** * Function Name  : EXTI9_5_IRQHandler
 413:cpu/STM32F103/stm32f10x_it.c **** * Description    : This function handles External lines 9 to 5 interrupt request.
 414:cpu/STM32F103/stm32f10x_it.c **** * Input          : None
 415:cpu/STM32F103/stm32f10x_it.c **** * Output         : None
 416:cpu/STM32F103/stm32f10x_it.c **** * Return         : None
 417:cpu/STM32F103/stm32f10x_it.c **** *******************************************************************************/
 418:cpu/STM32F103/stm32f10x_it.c **** //void EXTI9_5_IRQHandler(void)
 419:cpu/STM32F103/stm32f10x_it.c **** //{
 420:cpu/STM32F103/stm32f10x_it.c **** //}
 421:cpu/STM32F103/stm32f10x_it.c **** 
 422:cpu/STM32F103/stm32f10x_it.c **** /*******************************************************************************
 423:cpu/STM32F103/stm32f10x_it.c **** * Function Name  : TIM1_BRK_IRQHandler
 424:cpu/STM32F103/stm32f10x_it.c **** * Description    : This function handles TIM1 Break interrupt request.
 425:cpu/STM32F103/stm32f10x_it.c **** * Input          : None
 426:cpu/STM32F103/stm32f10x_it.c **** * Output         : None
 427:cpu/STM32F103/stm32f10x_it.c **** * Return         : None
 428:cpu/STM32F103/stm32f10x_it.c **** *******************************************************************************/
 429:cpu/STM32F103/stm32f10x_it.c **** void TIM1_BRK_IRQHandler(void)
 430:cpu/STM32F103/stm32f10x_it.c **** {
 431:cpu/STM32F103/stm32f10x_it.c **** }
 432:cpu/STM32F103/stm32f10x_it.c **** 
 433:cpu/STM32F103/stm32f10x_it.c **** /*******************************************************************************
 434:cpu/STM32F103/stm32f10x_it.c **** * Function Name  : TIM1_UP_IRQHandler
 435:cpu/STM32F103/stm32f10x_it.c **** * Description    : This function handles TIM1 overflow and update interrupt
 436:cpu/STM32F103/stm32f10x_it.c **** *                  request.
 437:cpu/STM32F103/stm32f10x_it.c **** * Input          : None
 438:cpu/STM32F103/stm32f10x_it.c **** * Output         : None
 439:cpu/STM32F103/stm32f10x_it.c **** * Return         : None
 440:cpu/STM32F103/stm32f10x_it.c **** *******************************************************************************/
 441:cpu/STM32F103/stm32f10x_it.c **** //void TIM1_UP_IRQHandler(void)
 442:cpu/STM32F103/stm32f10x_it.c **** //{
 443:cpu/STM32F103/stm32f10x_it.c **** //}
 444:cpu/STM32F103/stm32f10x_it.c **** 
 445:cpu/STM32F103/stm32f10x_it.c **** /*******************************************************************************
 446:cpu/STM32F103/stm32f10x_it.c **** * Function Name  : TIM1_TRG_COM_IRQHandler
 447:cpu/STM32F103/stm32f10x_it.c **** * Description    : This function handles TIM1 Trigger and commutation interrupts
 448:cpu/STM32F103/stm32f10x_it.c **** *                  requests.
 449:cpu/STM32F103/stm32f10x_it.c **** * Input          : None
 450:cpu/STM32F103/stm32f10x_it.c **** * Output         : None
 451:cpu/STM32F103/stm32f10x_it.c **** * Return         : None
 452:cpu/STM32F103/stm32f10x_it.c **** *******************************************************************************/
 453:cpu/STM32F103/stm32f10x_it.c **** //void TIM1_TRG_COM_IRQHandler(void)
 454:cpu/STM32F103/stm32f10x_it.c **** //{
 455:cpu/STM32F103/stm32f10x_it.c **** //  Timer1CommutationInterruptHandler();
 456:cpu/STM32F103/stm32f10x_it.c **** //}
 457:cpu/STM32F103/stm32f10x_it.c **** 
 458:cpu/STM32F103/stm32f10x_it.c **** /*******************************************************************************
 459:cpu/STM32F103/stm32f10x_it.c **** * Function Name  : TIM1_CC_IRQHandler
 460:cpu/STM32F103/stm32f10x_it.c **** * Description    : This function handles TIM1 capture compare interrupt request.
 461:cpu/STM32F103/stm32f10x_it.c **** * Input          : None
 462:cpu/STM32F103/stm32f10x_it.c **** * Output         : None
 463:cpu/STM32F103/stm32f10x_it.c **** * Return         : None
 464:cpu/STM32F103/stm32f10x_it.c **** *******************************************************************************/
 465:cpu/STM32F103/stm32f10x_it.c **** //void TIM1_CC_IRQHandler(void)
 466:cpu/STM32F103/stm32f10x_it.c **** //{
 467:cpu/STM32F103/stm32f10x_it.c **** //}
 468:cpu/STM32F103/stm32f10x_it.c **** 
 469:cpu/STM32F103/stm32f10x_it.c **** /*******************************************************************************
 470:cpu/STM32F103/stm32f10x_it.c **** * Function Name  : TIM2_IRQHandler
 471:cpu/STM32F103/stm32f10x_it.c **** * Description    : This function handles TIM2 global interrupt request.
 472:cpu/STM32F103/stm32f10x_it.c **** * Input          : None
 473:cpu/STM32F103/stm32f10x_it.c **** * Output         : None
 474:cpu/STM32F103/stm32f10x_it.c **** * Return         : None
 475:cpu/STM32F103/stm32f10x_it.c **** *******************************************************************************/
 476:cpu/STM32F103/stm32f10x_it.c **** //void TIM2_IRQHandler(void)
 477:cpu/STM32F103/stm32f10x_it.c **** //{
 478:cpu/STM32F103/stm32f10x_it.c **** //}
 479:cpu/STM32F103/stm32f10x_it.c **** 
 480:cpu/STM32F103/stm32f10x_it.c **** /*******************************************************************************
 481:cpu/STM32F103/stm32f10x_it.c **** * Function Name  : TIM3_IRQHandler
 482:cpu/STM32F103/stm32f10x_it.c **** * Description    : This function handles TIM3 global interrupt request.
 483:cpu/STM32F103/stm32f10x_it.c **** * Input          : None
 484:cpu/STM32F103/stm32f10x_it.c **** * Output         : None
 485:cpu/STM32F103/stm32f10x_it.c **** * Return         : None
 486:cpu/STM32F103/stm32f10x_it.c **** *******************************************************************************/
 487:cpu/STM32F103/stm32f10x_it.c **** //void TIM3_IRQHandler(void)
 488:cpu/STM32F103/stm32f10x_it.c **** //{
 489:cpu/STM32F103/stm32f10x_it.c **** //}
 490:cpu/STM32F103/stm32f10x_it.c **** 
 491:cpu/STM32F103/stm32f10x_it.c **** /*******************************************************************************
 492:cpu/STM32F103/stm32f10x_it.c **** * Function Name  : TIM4_IRQHandler
 493:cpu/STM32F103/stm32f10x_it.c **** * Description    : This function handles TIM4 global interrupt request.
 494:cpu/STM32F103/stm32f10x_it.c **** * Input          : None
 495:cpu/STM32F103/stm32f10x_it.c **** * Output         : None
 496:cpu/STM32F103/stm32f10x_it.c **** * Return         : None
 497:cpu/STM32F103/stm32f10x_it.c **** *******************************************************************************/
 498:cpu/STM32F103/stm32f10x_it.c **** //void TIM4_IRQHandler(void)
 499:cpu/STM32F103/stm32f10x_it.c **** //{
 500:cpu/STM32F103/stm32f10x_it.c **** //}
 501:cpu/STM32F103/stm32f10x_it.c **** 
 502:cpu/STM32F103/stm32f10x_it.c **** /*******************************************************************************
 503:cpu/STM32F103/stm32f10x_it.c **** * Function Name  : I2C1_EV_IRQHandler
 504:cpu/STM32F103/stm32f10x_it.c **** * Description    : This function handles I2C1 Event interrupt request.
 505:cpu/STM32F103/stm32f10x_it.c **** * Input          : None
 506:cpu/STM32F103/stm32f10x_it.c **** * Output         : None
 507:cpu/STM32F103/stm32f10x_it.c **** * Return         : None
 508:cpu/STM32F103/stm32f10x_it.c **** *******************************************************************************/
 509:cpu/STM32F103/stm32f10x_it.c **** void  __attribute__ ((weak)) I2C1_EV_IRQHandler(void)
 510:cpu/STM32F103/stm32f10x_it.c **** {
 638              		.loc 1 510 1 is_stmt 1 view -0
 639              		.cfi_startproc
 640              		@ args = 0, pretend = 0, frame = 0
 641              		@ frame_needed = 0, uses_anonymous_args = 0
 642              		@ link register save eliminated.
 511:cpu/STM32F103/stm32f10x_it.c **** }
 643              		.loc 1 511 1 view .LVU33
 644 00ac 7047     		bx	lr
 645              		.cfi_endproc
 646              	.LFE31:
 648              		.align	1
 649 00ae 00BF     		.p2align 2,,3
 650              		.weak	I2C1_ER_IRQHandler
 651              		.syntax unified
 652              		.thumb
 653              		.thumb_func
 655              	I2C1_ER_IRQHandler:
 656              	.LFB143:
 657              		.cfi_startproc
 658              		@ args = 0, pretend = 0, frame = 0
 659              		@ frame_needed = 0, uses_anonymous_args = 0
 660              		@ link register save eliminated.
 661 00b0 7047     		bx	lr
 662              		.cfi_endproc
 663              	.LFE143:
 665              		.align	1
 666 00b2 00BF     		.p2align 2,,3
 667              		.weak	I2C2_EV_IRQHandler
 668              		.syntax unified
 669              		.thumb
 670              		.thumb_func
 672              	I2C2_EV_IRQHandler:
 673              	.LFB145:
 674              		.cfi_startproc
 675              		@ args = 0, pretend = 0, frame = 0
 676              		@ frame_needed = 0, uses_anonymous_args = 0
 677              		@ link register save eliminated.
 678 00b4 7047     		bx	lr
 679              		.cfi_endproc
 680              	.LFE145:
 682              		.align	1
 683 00b6 00BF     		.p2align 2,,3
 684              		.weak	I2C2_ER_IRQHandler
 685              		.syntax unified
 686              		.thumb
 687              		.thumb_func
 689              	I2C2_ER_IRQHandler:
 690              	.LFB147:
 691              		.cfi_startproc
 692              		@ args = 0, pretend = 0, frame = 0
 693              		@ frame_needed = 0, uses_anonymous_args = 0
 694              		@ link register save eliminated.
 695 00b8 7047     		bx	lr
 696              		.cfi_endproc
 697              	.LFE147:
 699              		.align	1
 700 00ba 00BF     		.p2align 2,,3
 701              		.weak	SPI1_IRQHandler
 702              		.syntax unified
 703              		.thumb
 704              		.thumb_func
 706              	SPI1_IRQHandler:
 707              	.LFB149:
 708              		.cfi_startproc
 709              		@ args = 0, pretend = 0, frame = 0
 710              		@ frame_needed = 0, uses_anonymous_args = 0
 711              		@ link register save eliminated.
 712 00bc 7047     		bx	lr
 713              		.cfi_endproc
 714              	.LFE149:
 716              		.align	1
 717 00be 00BF     		.p2align 2,,3
 718              		.weak	SPI2_IRQHandler
 719              		.syntax unified
 720              		.thumb
 721              		.thumb_func
 723              	SPI2_IRQHandler:
 724              	.LFB151:
 725              		.cfi_startproc
 726              		@ args = 0, pretend = 0, frame = 0
 727              		@ frame_needed = 0, uses_anonymous_args = 0
 728              		@ link register save eliminated.
 729 00c0 7047     		bx	lr
 730              		.cfi_endproc
 731              	.LFE151:
 733              		.align	1
 734 00c2 00BF     		.p2align 2,,3
 735              		.weak	USART1_IRQHandler
 736              		.syntax unified
 737              		.thumb
 738              		.thumb_func
 740              	USART1_IRQHandler:
 741              	.LFB153:
 742              		.cfi_startproc
 743              		@ args = 0, pretend = 0, frame = 0
 744              		@ frame_needed = 0, uses_anonymous_args = 0
 745              		@ link register save eliminated.
 746 00c4 7047     		bx	lr
 747              		.cfi_endproc
 748              	.LFE153:
 750              		.align	1
 751 00c6 00BF     		.p2align 2,,3
 752              		.weak	USART2_IRQHandler
 753              		.syntax unified
 754              		.thumb
 755              		.thumb_func
 757              	USART2_IRQHandler:
 758              	.LFB155:
 759              		.cfi_startproc
 760              		@ args = 0, pretend = 0, frame = 0
 761              		@ frame_needed = 0, uses_anonymous_args = 0
 762              		@ link register save eliminated.
 763 00c8 7047     		bx	lr
 764              		.cfi_endproc
 765              	.LFE155:
 767              		.align	1
 768 00ca 00BF     		.p2align 2,,3
 769              		.weak	USART3_IRQHandler
 770              		.syntax unified
 771              		.thumb
 772              		.thumb_func
 774              	USART3_IRQHandler:
 775              	.LFB157:
 776              		.cfi_startproc
 777              		@ args = 0, pretend = 0, frame = 0
 778              		@ frame_needed = 0, uses_anonymous_args = 0
 779              		@ link register save eliminated.
 780 00cc 7047     		bx	lr
 781              		.cfi_endproc
 782              	.LFE157:
 784              		.align	1
 785 00ce 00BF     		.p2align 2,,3
 786              		.weak	EXTI15_10_IRQHandler
 787              		.syntax unified
 788              		.thumb
 789              		.thumb_func
 791              	EXTI15_10_IRQHandler:
 792              	.LFB159:
 793              		.cfi_startproc
 794              		@ args = 0, pretend = 0, frame = 0
 795              		@ frame_needed = 0, uses_anonymous_args = 0
 796              		@ link register save eliminated.
 797 00d0 7047     		bx	lr
 798              		.cfi_endproc
 799              	.LFE159:
 801              		.align	1
 802 00d2 00BF     		.p2align 2,,3
 803              		.global	RTCAlarm_IRQHandler
 804              		.syntax unified
 805              		.thumb
 806              		.thumb_func
 808              	RTCAlarm_IRQHandler:
 809              	.LFB103:
 810              		.cfi_startproc
 811              		@ args = 0, pretend = 0, frame = 0
 812              		@ frame_needed = 0, uses_anonymous_args = 0
 813              		@ link register save eliminated.
 814 00d4 7047     		bx	lr
 815              		.cfi_endproc
 816              	.LFE103:
 818              		.align	1
 819 00d6 00BF     		.p2align 2,,3
 820              		.global	USBWakeUp_IRQHandler
 821              		.syntax unified
 822              		.thumb
 823              		.thumb_func
 825              	USBWakeUp_IRQHandler:
 826              	.LFB105:
 827              		.cfi_startproc
 828              		@ args = 0, pretend = 0, frame = 0
 829              		@ frame_needed = 0, uses_anonymous_args = 0
 830              		@ link register save eliminated.
 831 00d8 7047     		bx	lr
 832              		.cfi_endproc
 833              	.LFE105:
 835              		.align	1
 836 00da 00BF     		.p2align 2,,3
 837              		.global	TIM8_BRK_IRQHandler
 838              		.syntax unified
 839              		.thumb
 840              		.thumb_func
 842              	TIM8_BRK_IRQHandler:
 843              	.LFB107:
 844              		.cfi_startproc
 845              		@ args = 0, pretend = 0, frame = 0
 846              		@ frame_needed = 0, uses_anonymous_args = 0
 847              		@ link register save eliminated.
 848 00dc 7047     		bx	lr
 849              		.cfi_endproc
 850              	.LFE107:
 852              		.align	1
 853 00de 00BF     		.p2align 2,,3
 854              		.global	TIM8_UP_IRQHandler
 855              		.syntax unified
 856              		.thumb
 857              		.thumb_func
 859              	TIM8_UP_IRQHandler:
 860              	.LFB109:
 861              		.cfi_startproc
 862              		@ args = 0, pretend = 0, frame = 0
 863              		@ frame_needed = 0, uses_anonymous_args = 0
 864              		@ link register save eliminated.
 865 00e0 7047     		bx	lr
 866              		.cfi_endproc
 867              	.LFE109:
 869              		.align	1
 870 00e2 00BF     		.p2align 2,,3
 871              		.global	TIM8_TRG_COM_IRQHandler
 872              		.syntax unified
 873              		.thumb
 874              		.thumb_func
 876              	TIM8_TRG_COM_IRQHandler:
 877              	.LFB111:
 878              		.cfi_startproc
 879              		@ args = 0, pretend = 0, frame = 0
 880              		@ frame_needed = 0, uses_anonymous_args = 0
 881              		@ link register save eliminated.
 882 00e4 7047     		bx	lr
 883              		.cfi_endproc
 884              	.LFE111:
 886              		.align	1
 887 00e6 00BF     		.p2align 2,,3
 888              		.global	TIM8_CC_IRQHandler
 889              		.syntax unified
 890              		.thumb
 891              		.thumb_func
 893              	TIM8_CC_IRQHandler:
 894              	.LFB113:
 895              		.cfi_startproc
 896              		@ args = 0, pretend = 0, frame = 0
 897              		@ frame_needed = 0, uses_anonymous_args = 0
 898              		@ link register save eliminated.
 899 00e8 7047     		bx	lr
 900              		.cfi_endproc
 901              	.LFE113:
 903              		.align	1
 904 00ea 00BF     		.p2align 2,,3
 905              		.global	ADC3_IRQHandler
 906              		.syntax unified
 907              		.thumb
 908              		.thumb_func
 910              	ADC3_IRQHandler:
 911              	.LFB115:
 912              		.cfi_startproc
 913              		@ args = 0, pretend = 0, frame = 0
 914              		@ frame_needed = 0, uses_anonymous_args = 0
 915              		@ link register save eliminated.
 916 00ec 7047     		bx	lr
 917              		.cfi_endproc
 918              	.LFE115:
 920              		.align	1
 921 00ee 00BF     		.p2align 2,,3
 922              		.global	FSMC_IRQHandler
 923              		.syntax unified
 924              		.thumb
 925              		.thumb_func
 927              	FSMC_IRQHandler:
 928              	.LFB117:
 929              		.cfi_startproc
 930              		@ args = 0, pretend = 0, frame = 0
 931              		@ frame_needed = 0, uses_anonymous_args = 0
 932              		@ link register save eliminated.
 933 00f0 7047     		bx	lr
 934              		.cfi_endproc
 935              	.LFE117:
 937              		.align	1
 938 00f2 00BF     		.p2align 2,,3
 939              		.global	SDIO_IRQHandler
 940              		.syntax unified
 941              		.thumb
 942              		.thumb_func
 944              	SDIO_IRQHandler:
 945              	.LFB119:
 946              		.cfi_startproc
 947              		@ args = 0, pretend = 0, frame = 0
 948              		@ frame_needed = 0, uses_anonymous_args = 0
 949              		@ link register save eliminated.
 950 00f4 7047     		bx	lr
 951              		.cfi_endproc
 952              	.LFE119:
 954              		.align	1
 955 00f6 00BF     		.p2align 2,,3
 956              		.global	TIM5_IRQHandler
 957              		.syntax unified
 958              		.thumb
 959              		.thumb_func
 961              	TIM5_IRQHandler:
 962              	.LFB121:
 963              		.cfi_startproc
 964              		@ args = 0, pretend = 0, frame = 0
 965              		@ frame_needed = 0, uses_anonymous_args = 0
 966              		@ link register save eliminated.
 967 00f8 7047     		bx	lr
 968              		.cfi_endproc
 969              	.LFE121:
 971              		.align	1
 972 00fa 00BF     		.p2align 2,,3
 973              		.global	SPI3_IRQHandler
 974              		.syntax unified
 975              		.thumb
 976              		.thumb_func
 978              	SPI3_IRQHandler:
 979              	.LFB123:
 980              		.cfi_startproc
 981              		@ args = 0, pretend = 0, frame = 0
 982              		@ frame_needed = 0, uses_anonymous_args = 0
 983              		@ link register save eliminated.
 984 00fc 7047     		bx	lr
 985              		.cfi_endproc
 986              	.LFE123:
 988              		.align	1
 989 00fe 00BF     		.p2align 2,,3
 990              		.global	UART4_IRQHandler
 991              		.syntax unified
 992              		.thumb
 993              		.thumb_func
 995              	UART4_IRQHandler:
 996              	.LFB125:
 997              		.cfi_startproc
 998              		@ args = 0, pretend = 0, frame = 0
 999              		@ frame_needed = 0, uses_anonymous_args = 0
 1000              		@ link register save eliminated.
 1001 0100 7047     		bx	lr
 1002              		.cfi_endproc
 1003              	.LFE125:
 1005              		.align	1
 1006 0102 00BF     		.p2align 2,,3
 1007              		.global	UART5_IRQHandler
 1008              		.syntax unified
 1009              		.thumb
 1010              		.thumb_func
 1012              	UART5_IRQHandler:
 1013              	.LFB127:
 1014              		.cfi_startproc
 1015              		@ args = 0, pretend = 0, frame = 0
 1016              		@ frame_needed = 0, uses_anonymous_args = 0
 1017              		@ link register save eliminated.
 1018 0104 7047     		bx	lr
 1019              		.cfi_endproc
 1020              	.LFE127:
 1022              		.align	1
 1023 0106 00BF     		.p2align 2,,3
 1024              		.global	TIM6_IRQHandler
 1025              		.syntax unified
 1026              		.thumb
 1027              		.thumb_func
 1029              	TIM6_IRQHandler:
 1030              	.LFB129:
 1031              		.cfi_startproc
 1032              		@ args = 0, pretend = 0, frame = 0
 1033              		@ frame_needed = 0, uses_anonymous_args = 0
 1034              		@ link register save eliminated.
 1035 0108 7047     		bx	lr
 1036              		.cfi_endproc
 1037              	.LFE129:
 1039              		.align	1
 1040 010a 00BF     		.p2align 2,,3
 1041              		.global	TIM7_IRQHandler
 1042              		.syntax unified
 1043              		.thumb
 1044              		.thumb_func
 1046              	TIM7_IRQHandler:
 1047              	.LFB131:
 1048              		.cfi_startproc
 1049              		@ args = 0, pretend = 0, frame = 0
 1050              		@ frame_needed = 0, uses_anonymous_args = 0
 1051              		@ link register save eliminated.
 1052 010c 7047     		bx	lr
 1053              		.cfi_endproc
 1054              	.LFE131:
 1056              		.align	1
 1057 010e 00BF     		.p2align 2,,3
 1058              		.global	DMA2_Channel1_IRQHandler
 1059              		.syntax unified
 1060              		.thumb
 1061              		.thumb_func
 1063              	DMA2_Channel1_IRQHandler:
 1064              	.LFB133:
 1065              		.cfi_startproc
 1066              		@ args = 0, pretend = 0, frame = 0
 1067              		@ frame_needed = 0, uses_anonymous_args = 0
 1068              		@ link register save eliminated.
 1069 0110 7047     		bx	lr
 1070              		.cfi_endproc
 1071              	.LFE133:
 1073              		.align	1
 1074 0112 00BF     		.p2align 2,,3
 1075              		.global	DMA2_Channel2_IRQHandler
 1076              		.syntax unified
 1077              		.thumb
 1078              		.thumb_func
 1080              	DMA2_Channel2_IRQHandler:
 1081              	.LFB135:
 1082              		.cfi_startproc
 1083              		@ args = 0, pretend = 0, frame = 0
 1084              		@ frame_needed = 0, uses_anonymous_args = 0
 1085              		@ link register save eliminated.
 1086 0114 7047     		bx	lr
 1087              		.cfi_endproc
 1088              	.LFE135:
 1090              		.align	1
 1091 0116 00BF     		.p2align 2,,3
 1092              		.global	DMA2_Channel3_IRQHandler
 1093              		.syntax unified
 1094              		.thumb
 1095              		.thumb_func
 1097              	DMA2_Channel3_IRQHandler:
 1098              	.LFB137:
 1099              		.cfi_startproc
 1100              		@ args = 0, pretend = 0, frame = 0
 1101              		@ frame_needed = 0, uses_anonymous_args = 0
 1102              		@ link register save eliminated.
 1103 0118 7047     		bx	lr
 1104              		.cfi_endproc
 1105              	.LFE137:
 1107              		.align	1
 1108 011a 00BF     		.p2align 2,,3
 1109              		.global	DMA2_Channel4_5_IRQHandler
 1110              		.syntax unified
 1111              		.thumb
 1112              		.thumb_func
 1114              	DMA2_Channel4_5_IRQHandler:
 1115              	.LFB139:
 1116              		.cfi_startproc
 1117              		@ args = 0, pretend = 0, frame = 0
 1118              		@ frame_needed = 0, uses_anonymous_args = 0
 1119              		@ link register save eliminated.
 1120 011c 7047     		bx	lr
 1121              		.cfi_endproc
 1122              	.LFE139:
 1124              	.Letext0:
 1125              		.file 2 "cpu/STM32F103/stm32f10x_type.h"